******************************************************************************
                  TI ARM Linker PC v20.2.6                     
******************************************************************************
>> Linked Thu Jun 20 16:09:33 2024

OUTPUT FILE NAME:   <Telecom_IoT_v2_00.out>
ENTRY POINT SYMBOL: "_c_int00_noargs"  address: 00011c99


MEMORY CONFIGURATION

         name            origin    length      used     unused   attr    fill
----------------------  --------  ---------  --------  --------  ----  --------
  FLASH                 00000000   00020000  00013016  0000cfea  R  X
  SRAM                  20000000   00008000  0000430a  00003cf6  RW X


SEGMENT ALLOCATION MAP

run origin  load origin   length   init length attrs members
----------  ----------- ---------- ----------- ----- -------
00000000    00000000    00013018   00013018    r-x
  00000000    00000000    0000026c   0000026c    r-- .intvecs
  0000026c    0000026c    0001244e   0001244e    r-x .text
  000126bc    000126bc    000008a8   000008a8    r-- .const
  00012f64    00012f64    00000024   00000024    r-- .init_array
  00012f88    00012f88    00000090   00000090    r-- .cinit
20000000    20000000    00004310   00000000    rw-
  20000000    20000000    0000026c   00000000    rw- .vtable
  2000026c    2000026c    000027d6   00000000    rw- .bss
  20002a48    20002a48    00001800   00000000    rw- .stack
  20004248    20004248    000000b8   00000000    rw- .data
  20004300    20004300    00000010   00000000    rw- .sysmem


SECTION ALLOCATION MAP

 output                                  attributes/
section   page    origin      length       input sections
--------  ----  ----------  ----------   ----------------
.intvecs   0    00000000    0000026c     
                  00000000    0000026c     tm4c1233e6pz_startup_ccs.obj (.intvecs)

.text      0    0000026c    0001244e     
                  0000026c    00001564     uip.obj (.text)
                  000017d0    0000139c     Telecom_Ethernet.obj (.text)
                  00002b6c    000012dc     Clock.obj (.text)
                  00003e48    00000fb8     gps.obj (.text)
                  00004e00    00000e68     flash_logger.obj (.text)
                  00005c68    00000bd0     UIPClient.obj (.text)
                  00006838    00000bcc     Dhcp.obj (.text)
                  00007404    00000b94     Enc28J60Network.obj (.text)
                  00007f98    00000b44     Telecom_server_query.obj (.text)
                  00008adc    00000afc     PC_Cmds.obj (.text)
                  000095d8    00000ae0     UIPEthernet.obj (.text)
                  0000a0b8    00000a80     IO_cntrl.obj (.text)
                  0000ab38    00000a66     flashCore.obj (.text)
                  0000b59e    00000002     rtsv7M4_T_le_v4SPD16_eabi.lib : stdlib_typeinfo.cpp.obj (.text:_ZNSt9type_infoD1Ev)
                  0000b5a0    000009e0     E2P.obj (.text)
                  0000bf80    0000093c     main.obj (.text)
                  0000c8bc    00000820     ADC_Core.obj (.text)
                  0000d0dc    00000794     UIPUdp.obj (.text)
                  0000d870    000005e4     uip_arp.obj (.text)
                  0000de54    000005bc     UartCore.obj (.text)
                  0000e410    000005b8     Print.obj (.text)
                  0000e9c8    000005b0     Dns.obj (.text)
                  0000ef78    000004cc     _common.obj (.text)
                  0000f444    000002f0     mempool.obj (.text)
                  0000f734    000002b8     rtsv7M4_T_le_v4SPD16_eabi.lib : mktime64.c.obj (.text:__mktime64)
                  0000f9ec    00000284     UIPServer.obj (.text)
                  0000fc70    00000230     gprs.obj (.text)
                  0000fea0    00000210     DS3231.obj (.text)
                  000100b0    000001b8     SysTick_Timer.obj (.text)
                  00010268    000001b6     rtsv7M4_T_le_v4SPD16_eabi.lib : fd_add_t2.asm.obj (.text)
                  0001041e    00000192     itoa.obj (.text)
                  000105b0    0000016c     driverlib.lib : gpio.obj (.text:GPIOPadConfigSet)
                  0001071c    0000016c     IPAddress.obj (.text)
                  00010888    00000136     rtsv7M4_T_le_v4SPD16_eabi.lib : fd_div_t2.asm.obj (.text)
                  000109be    00000002                                   : _lock.c.obj (.text:_nop)
                  000109c0    00000118     driverlib.lib : sysctl.obj (.text:SysCtlClockGet)
                  00010ad8    00000100     rtsv7M4_T_le_v4SPD16_eabi.lib : memory.c.obj (.text:aligned_alloc)
                  00010bd8    000000fc                                   : fd_mul_t2.asm.obj (.text)
                  00010cd4    000000f4     driverlib.lib : sysctl.obj (.text:SysCtlClockSet)
                  00010dc8    000000e4     rtsv7M4_T_le_v4SPD16_eabi.lib : memory.c.obj (.text:free)
                  00010eac    000000c4     driverlib.lib : eeprom.obj (.text:EEPROMProgram)
                  00010f70    0000009c     rtsv7M4_T_le_v4SPD16_eabi.lib : memcpy_t2.asm.obj (.text)
                  0001100c    00000096                                   : ull_div_t2.asm.obj (.text)
                  000110a2    00000086                                   : fd_cmp_t2.asm.obj (.text:__aeabi_cdcmple)
                  00011128    00000086                                   : fd_cmp_t2.asm.obj (.text:__aeabi_cdrcmple)
                  000111ae    0000007a     driverlib.lib : adc.obj (.text:ADCSequenceStepConfigure)
                  00011228    0000007a     rtsv7M4_T_le_v4SPD16_eabi.lib : memset_t2.asm.obj (.text)
                  000112a2    00000002                                   : div0.asm.obj (.text)
                  000112a4    00000070                                   : memory.c.obj (.text:split)
                  00011314    0000006e                                   : ll_div_t2.asm.obj (.text)
                  00011382    00000002     --HOLE-- [fill = 0]
                  00011384    00000068     driverlib.lib : interrupt.obj (.text:IntEnable)
                  000113ec    00000068     rtsv7M4_T_le_v4SPD16_eabi.lib : copy_decompress_lzss.c.obj (.text:decompress:lzss:__TI_decompress_lzss)
                  00011454    00000060                                   : hosttime.c.obj (.text:HOSTtime64)
                  000114b4    00000060                                   : autoinit.c.obj (.text:__TI_auto_init_nobinit:__TI_auto_init_nobinit)
                  00011514    0000005c     Print.obj (.text:__isnan)
                  00011570    00000058     driverlib.lib : gpio.obj (.text:GPIOIntTypeSet)
                  000115c8    00000054     Print.obj (.text:__isinf)
                  0001161c    00000050     driverlib.lib : sysctl.obj (.text:SysCtlPeripheralReset)
                  0001166c    0000004e                   : adc.obj (.text:ADCSequenceConfigure)
                  000116ba    00000002     --HOLE-- [fill = 0]
                  000116bc    0000004c                   : gpio.obj (.text:GPIOPinConfigure)
                  00011708    0000004c                   : i2c.obj (.text:I2CMasterInitExpClk)
                  00011754    0000004c     rtsv7M4_T_le_v4SPD16_eabi.lib : atoi.c.obj (.text:atoi)
                  000117a0    00000048                                   : exit.c.obj (.text:exit)
                  000117e8    00000048                                   : fd_toi_t2.asm.obj (.text)
                  00011830    00000046     driverlib.lib : uart.obj (.text:UARTConfigSetExpClk)
                  00011876    00000002     --HOLE-- [fill = 0]
                  00011878    00000044                   : gpio.obj (.text:_GPIOIntNumberGet)
                  000118bc    00000044     rtsv7M4_T_le_v4SPD16_eabi.lib : dtor_list.c.obj (.text:_Z25__add_destruction_to_listPP20a_needed_destructionPFYvPvES2_S2_)
                  00011900    00000044                                   : fd_tou_t2.asm.obj (.text)
                  00011944    00000042                                   : dtor_list.c.obj (.text:_Z23__finalize_destructionsPP20a_needed_destructionPv)
                  00011986    00000002     --HOLE-- [fill = 0]
                  00011988    00000040     driverlib.lib : eeprom.obj (.text:EEPROMInit)
                  000119c8    00000040     rtsv7M4_T_le_v4SPD16_eabi.lib : u_divt2.asm.obj (.text)
                  00011a08    0000003c     driverlib.lib : ssi.obj (.text:SSIConfigSetExpClk)
                  00011a44    0000003c                   : eeprom.obj (.text:_EEPROMSectorMaskSet)
                  00011a80    00000038                   : eeprom.obj (.text:EEPROMRead)
                  00011ab8    00000038                   : sysctl.obj (.text:SysCtlPeripheralReady)
                  00011af0    00000038     rtsv7M4_T_le_v4SPD16_eabi.lib : trgmsg.c.obj (.text:__TI_writemsg)
                  00011b28    00000038     delay.obj (.text)
                  00011b60    00000034     driverlib.lib : interrupt.obj (.text:IntRegister)
                  00011b94    00000034                   : sysctl.obj (.text:SysCtlPeripheralDisable)
                  00011bc8    00000034                   : sysctl.obj (.text:SysCtlPeripheralEnable)
                  00011bfc    00000034                   : eeprom.obj (.text:_EEPROMSectorMaskClear)
                  00011c30    00000034     rtsv7M4_T_le_v4SPD16_eabi.lib : trgmsg.c.obj (.text:__TI_readmsg)
                  00011c64    00000034                                   : dtor_list.c.obj (.text:__aeabi_atexit)
                  00011c98    00000034                                   : boot_cortex_m.c.obj (.text:_c_int00_noargs:_c_int00_noargs)
                  00011ccc    00000034                                   : rand.c.obj (.text:rand)
                  00011d00    00000034                                   : strstr.c.obj (.text:strstr)
                  00011d34    0000002e     driverlib.lib : adc.obj (.text:ADCIntStatus)
                  00011d62    0000002e     rtsv7M4_T_le_v4SPD16_eabi.lib : i_tofd_t2.asm.obj (.text)
                  00011d90    0000002c     driverlib.lib : gpio.obj (.text:GPIODirModeSet)
                  00011dbc    0000002c     SPI.obj (.text)
                  00011de8    0000002c     rtsv7M4_T_le_v4SPD16_eabi.lib : strncmp.c.obj (.text:strncmp)
                  00011e14    00000028                                   : memory.c.obj (.text:free_list_insert)
                  00011e3c    00000024     Print.obj (.text:_ZN5Print5writeEPKc)
                  00011e60    00000024     Dhcp.obj (.text:_ZN9IPAddressC1ERKS_)
                  00011e84    00000024     Dhcp.obj (.text:_ZThn8_N6UIPUDP4readEPcj)
                  00011ea8    00000024     rtsv7M4_T_le_v4SPD16_eabi.lib : memcmp.c.obj (.text:memcmp)
                  00011ecc    00000024                                   : rand.c.obj (.text:srand)
                  00011ef0    00000022     UIPClient.obj (.text:_ZN9UIPClientneERKS_)
                  00011f12    00000002     --HOLE-- [fill = 0]
                  00011f14    00000020     driverlib.lib : uart.obj (.text:UARTDisable)
                  00011f34    00000020     Print.obj (.text:_Z14__libcpp_isinfIdEbT_)
                  00011f54    00000020     Print.obj (.text:_Z14__libcpp_isnanIdEbT_)
                  00011f74    00000020     rtsv7M4_T_le_v4SPD16_eabi.lib : u_tofd_t2.asm.obj (.text)
                  00011f94    0000001e     driverlib.lib : adc.obj (.text:ADCSequenceDataGet)
                  00011fb2    00000002     --HOLE-- [fill = 0]
                  00011fb4    0000001c     UIPClient.obj (.text:_ZN5PrintC1Ev)
                  00011fd0    0000001c     Dhcp.obj (.text:_ZNK9IPAddresseqERKS_)
                  00011fec    0000001c     rtsv7M4_T_le_v4SPD16_eabi.lib : memory.c.obj (.text:free_list_remove)
                  00012008    0000001c     millis.obj (.text)
                  00012024    0000001a     driverlib.lib : gpio.obj (.text:GPIOPinTypeGPIOOutput)
                  0001203e    0000001a     Telecom_Ethernet.obj (.text:_ZN9IPAddressaSERKS_)
                  00012058    00000018     driverlib.lib : adc.obj (.text:ADCProcessorTrigger)
                  00012070    00000018                   : gpio.obj (.text:GPIOIntRegister)
                  00012088    00000018     Print.obj (.text:_Z5isinfIdENSt3__29enable_ifIXaasr3std3__213is_arithmeticIT_EE5valuesr3std3__214numeric_limitsIS2_EE12has_infinityEbE4typeES2_)
                  000120a0    00000018     Print.obj (.text:_Z5isnanIdENSt3__29enable_ifIXsr3std3__217is_floating_pointIT_EE5valueEbE4typeES2_)
                  000120b8    00000018     UIPUdp.obj (.text:_ZN3UDPC1Ev)
                  000120d0    00000018     Telecom_Ethernet.obj (.text:_ZN5Print5writeEPKcj)
                  000120e8    00000018     UIPClient.obj (.text:_ZN6ClientC1Ev)
                  00012100    00000018     UIPServer.obj (.text:_ZN6ServerC1Ev)
                  00012118    00000018     Dhcp.obj (.text:_ZN6UIPUDP4readEPcj)
                  00012130    00000018     Dhcp.obj (.text:_ZN9PrintableC1ERKS_)
                  00012148    00000018     IPAddress.obj (.text:_ZN9PrintableC1Ev)
                  00012160    00000018     rtsv7M4_T_le_v4SPD16_eabi.lib : ll_mul_t2.asm.obj (.text)
                  00012178    00000018                                   : strcmp.c.obj (.text:strcmp)
                  00012190    00000016     driverlib.lib : gpio.obj (.text:GPIOPinTypeADC)
                  000121a6    00000016                   : gpio.obj (.text:GPIOPinTypeGPIOInput)
                  000121bc    00000016                   : gpio.obj (.text:GPIOPinTypeI2C)
                  000121d2    00000016                   : gpio.obj (.text:GPIOPinTypeI2CSCL)
                  000121e8    00000016                   : gpio.obj (.text:GPIOPinTypeSSI)
                  000121fe    00000016                   : gpio.obj (.text:GPIOPinTypeUART)
                  00012214    00000016     UIPClient.obj (.text:_ZN9DNSClientC1Ev)
                  0001222a    00000016     UIPClient.obj (.text:_ZThn8_N9UIPClientD1Ev)
                  00012240    00000016     UIPServer.obj (.text:_ZThn8_N9UIPServerD1Ev)
                  00012256    00000002     --HOLE-- [fill = 0]
                  00012258    00000014     driverlib.lib : systick.obj (.text:SysTickEnable)
                  0001226c    00000014                   : systick.obj (.text:SysTickIntEnable)
                  00012280    00000014                   : uart.obj (.text:UARTEnable)
                  00012294    00000014     Telecom_Ethernet.obj (.text:_ZN6ClientD0Ev)
                  000122a8    00000014     UIPServer.obj (.text:_ZN6ServerD0Ev)
                  000122bc    00000014     Telecom_Ethernet.obj (.text:_ZN9IPAddressD0Ev)
                  000122d0    00000014     Telecom_Ethernet.obj (.text:_ZN9IPAddressixEi)
                  000122e4    00000014     Telecom_Ethernet.obj (.text:_ZN9PrintableD0Ev)
                  000122f8    00000014     Telecom_Ethernet.obj (.text:_ZN9UIPClientD0Ev)
                  0001230c    00000014     UIPServer.obj (.text:_ZN9UIPServerD0Ev)
                  00012320    00000014     rtsv7M4_T_le_v4SPD16_eabi.lib : strcpy.c.obj (.text:strcpy)
                  00012334    00000014                                   : strlen.c.obj (.text:strlen)
                  00012348    00000012     driverlib.lib : ssi.obj (.text:SSIDataGetNonBlocking)
                  0001235a    00000012     Telecom_server_query.obj (.text:_Z3absl)
                  0001236c    00000012     Telecom_Ethernet.obj (.text:_ZThn8_N9UIPClientD0Ev)
                  0001237e    00000012     UIPServer.obj (.text:_ZThn8_N9UIPServerD0Ev)
                  00012390    00000010     driverlib.lib : interrupt.obj (.text:IntMasterEnable)
                  000123a0    00000010                   : sysctl.obj (.text:SysCtlReset)
                  000123b0    00000010                   : systick.obj (.text:SysTickPeriodSet)
                  000123c0    00000010                   : eeprom.obj (.text:_EEPROMWaitForDone)
                  000123d0    00000010     UIPEthernet.obj (.text:_ZN9DhcpClassC1Ev)
                  000123e0    00000010     Dhcp.obj (.text:_ZN9PrintableC2ERKS_)
                  000123f0    00000010     Telecom_Ethernet.obj (.text:_ZN9UIPClientD1Ev)
                  00012400    00000010     UIPServer.obj (.text:_ZN9UIPServerD1Ev)
                  00012410    00000010     rtsv7M4_T_le_v4SPD16_eabi.lib : time64.c.obj (.text:__time64)
                  00012420    00000010                                   : isdigit.c.obj (.text:isdigit)
                  00012430    0000000e     driverlib.lib : adc.obj (.text:ADCSequenceEnable)
                  0001243e    0000000e                   : gpio.obj (.text:GPIOIntStatus)
                  0001244c    0000000e                   : i2c.obj (.text:I2CRxFIFOFlush)
                  0001245a    0000000e                   : i2c.obj (.text:I2CTxFIFOFlush)
                  00012468    0000000e                   : ssi.obj (.text:SSIDataPutNonBlocking)
                  00012476    0000000e                   : uart.obj (.text:UARTCharGetNonBlocking)
                  00012484    0000000e                   : uart.obj (.text:UARTCharPutNonBlocking)
                  00012492    0000000e                   : uart.obj (.text:UARTCharsAvail)
                  000124a0    0000000e     rtsv7M4_T_le_v4SPD16_eabi.lib : typeinfo.c.obj (.text:_ZN10__cxxabiv117__class_type_infoD0Ev)
                  000124ae    0000000e                                   : typeinfo.c.obj (.text:_ZN10__cxxabiv120__si_class_type_infoD0Ev)
                  000124bc    0000000e                                   : typeinfo.c.obj (.text:_ZN10__cxxabiv121__vmi_class_type_infoD0Ev)
                  000124ca    0000000e     UIPClient.obj (.text:_ZN9DNSClientD1Ev)
                  000124d8    0000000e     Dns.obj (.text:_ZN9IPAddress11raw_addressEv)
                  000124e6    0000000e     Telecom_Ethernet.obj (.text:_ZN9IPAddressD1Ev)
                  000124f4    0000000e     Telecom_Ethernet.obj (.text:_ZN9PrintableaSERKS_)
                  00012502    0000000e     Print.obj (.text:_ZNK6String5c_strEv)
                  00012510    0000000e     Print.obj (.text:_ZNK6String6lengthEv)
                  0001251e    0000000e     Dns.obj (.text:_ZNK9IPAddresscvjEv)
                  0001252c    0000000e     rtsv7M4_T_le_v4SPD16_eabi.lib : copy_decompress_none.c.obj (.text:decompress:none:__TI_decompress_none)
                  0001253a    0000000c     driverlib.lib : cpu.obj (.text:CPUcpsie)
                  00012546    0000000c                   : gpio.obj (.text:GPIOIntEnable)
                  00012552    0000000c     UIPUdp.obj (.text:_ZN3UDPC2Ev)
                  0001255e    0000000c     UIPClient.obj (.text:_ZN5PrintC2Ev)
                  0001256a    0000000c     UIPClient.obj (.text:_ZN6ClientC2Ev)
                  00012576    0000000c     Telecom_Ethernet.obj (.text:_ZN6ClientD1Ev)
                  00012582    0000000c     Telecom_Ethernet.obj (.text:_ZN6ClientD2Ev)
                  0001258e    0000000c     UIPServer.obj (.text:_ZN6ServerC2Ev)
                  0001259a    0000000c     UIPServer.obj (.text:_ZN6ServerD1Ev)
                  000125a6    0000000c     UIPServer.obj (.text:_ZN6ServerD2Ev)
                  000125b2    0000000c     IPAddress.obj (.text:_ZN9PrintableC2Ev)
                  000125be    0000000c     Telecom_Ethernet.obj (.text:_ZN9PrintableD1Ev)
                  000125ca    0000000c     Telecom_Ethernet.obj (.text:_ZN9PrintableD2Ev)
                  000125d6    00000002     --HOLE-- [fill = 0]
                  000125d8    0000000c     rtsv7M4_T_le_v4SPD16_eabi.lib : dtor_list.c.obj (.text:__cxa_finalize)
                  000125e4    0000000c                                   : guard.c.obj (.text:__cxa_guard_acquire)
                  000125f0    0000000c                                   : copy_zero_init.c.obj (.text:decompress:ZI:__TI_zero_init)
                  000125fc    0000000c     tm4c1233e6pz_startup_ccs.obj (.text)
                  00012608    0000000a     driverlib.lib : adc.obj (.text:ADCIntClear)
                  00012612    0000000a                   : i2c.obj (.text:I2CMasterEnable)
                  0001261c    0000000a                   : ssi.obj (.text:SSIEnable)
                  00012626    0000000a                   : uart.obj (.text:UARTIntStatus)
                  00012630    0000000a     rtsv7M4_T_le_v4SPD16_eabi.lib : guard.c.obj (.text:__cxa_guard_release)
                  0001263a    00000008     driverlib.lib : i2c.obj (.text:I2CMasterBusy)
                  00012642    00000008                   : i2c.obj (.text:I2CMasterSlaveAddrSet)
                  0001264a    00000008                   : uart.obj (.text:UARTBusy)
                  00012652    00000008                   : uart.obj (.text:UARTIntEnable)
                  0001265a    00000008     rtsv7M4_T_le_v4SPD16_eabi.lib : new.cpp.obj (.text:_ZdlPv)
                  00012662    00000008                                   : memory.c.obj (.text:malloc)
                  0001266a    00000006     driverlib.lib : gpio.obj (.text:GPIOIntClear)
                  00012670    00000006                   : gpio.obj (.text:GPIOPinRead)
                  00012676    00000006                   : gpio.obj (.text:GPIOPinWrite)
                  0001267c    00000006                   : sysctl.obj (.text:SysCtlDelay)
                  00012682    00000006     rtsv7M4_T_le_v4SPD16_eabi.lib : dtor_list.c.obj (.text:__cxa_ia64_exit)
                  00012688    00000006                                   : pure_virt.c.obj (.text:__cxa_pure_virtual)
                  0001268e    00000004     driverlib.lib : i2c.obj (.text:I2CMasterControl)
                  00012692    00000004                   : i2c.obj (.text:I2CMasterDataGet)
                  00012696    00000004                   : i2c.obj (.text:I2CMasterDataPut)
                  0001269a    00000004                   : uart.obj (.text:UARTIntClear)
                  0001269e    00000004     rtsv7M4_T_le_v4SPD16_eabi.lib : typeinfo.c.obj (.text:_ZN10__cxxabiv117__class_type_infoD1Ev)
                  000126a2    00000004                                   : typeinfo.c.obj (.text:_ZN10__cxxabiv120__si_class_type_infoD1Ev)
                  000126a6    00000004                                   : typeinfo.c.obj (.text:_ZN10__cxxabiv121__vmi_class_type_infoD1Ev)
                  000126aa    00000004                                   : new.cpp.obj (.text:_ZdlPvj)
                  000126ae    00000004                                   : error.c.obj (.text:__abort_execution)
                  000126b2    00000004                                   : pre_init.c.obj (.text:_system_pre_init)
                  000126b6    00000004                                   : exit.c.obj (.text:abort:abort)

.const     0    000126bc    000008a8     
                  000126bc    00000101     rtsv7M4_T_le_v4SPD16_eabi.lib : ctype.c.obj (.const:.string:_ctypes_)
                  000127bd    00000003     --HOLE-- [fill = 0]
                  000127c0    000000d8     driverlib.lib : gpio.obj (.const:g_ppui32GPIOIntMapSnowflake)
                  00012898    000000c0                   : gpio.obj (.const:g_ppui32GPIOIntMapBlizzard)
                  00012958    00000090     UIPUdp.obj (.const:_ZTV6UIPUDP)
                  000129e8    00000090     driverlib.lib : gpio.obj (.const:g_pui32GPIOBaseAddrs)
                  00012a78    0000008c     UIPClient.obj (.const:_ZTV9UIPClient)
                  00012b04    0000006c     driverlib.lib : sysctl.obj (.const:g_pui32Xtals)
                  00012b70    00000060     rtsv7M4_T_le_v4SPD16_eabi.lib : mktime64.c.obj (.const:$O1$$)
                  00012bd0    00000048     UIPUdp.obj (.const:_ZTV3UDP)
                  00012c18    00000041     _common.obj (.const:.string:$P$T0$1)
                  00012c59    00000003     --HOLE-- [fill = 0]
                  00012c5c    00000040     UIPClient.obj (.const:_ZTV6Client)
                  00012c9c    00000034     UIPServer.obj (.const:_ZTV9UIPServer)
                  00012cd0    00000026     rtsv7M4_T_le_v4SPD16_eabi.lib : typeinfo.c.obj (.const:.typeinfo:_ZTSN10__cxxabiv121__vmi_class_type_infoE)
                  00012cf6    00000025                                   : typeinfo.c.obj (.const:.typeinfo:_ZTSN10__cxxabiv120__si_class_type_infoE)
                  00012d1b    00000001     --HOLE-- [fill = 0]
                  00012d1c    00000024     Clock.obj (.const:$P$T0$1)
                  00012d40    00000022     rtsv7M4_T_le_v4SPD16_eabi.lib : typeinfo.c.obj (.const:.typeinfo:_ZTSN10__cxxabiv117__class_type_infoE)
                  00012d62    00000002     --HOLE-- [fill = 0]
                  00012d64    00000020     UIPUdp.obj (.const:.typeinfo:_ZTI6UIPUDP)
                  00012d84    00000020     UIPClient.obj (.const:.typeinfo:_ZTI9UIPClient)
                  00012da4    00000020     UIPServer.obj (.const:.typeinfo:_ZTI9UIPServer)
                  00012dc4    00000019     Telecom_Ethernet.obj (.const:.string:$P$T5$5)
                  00012ddd    00000003     --HOLE-- [fill = 0]
                  00012de0    00000014     UIPServer.obj (.const:_ZTV6Server)
                  00012df4    00000014     IPAddress.obj (.const:_ZTV9IPAddress)
                  00012e08    00000014     Dhcp.obj (.const:_ZTV9Printable)
                  00012e1c    00000014     driverlib.lib : interrupt.obj (.const:g_pui32EnRegs)
                  00012e30    00000010     Print.obj (.const:_ZTV5Print)
                  00012e40    00000010     rtsv7M4_T_le_v4SPD16_eabi.lib : typeinfo.c.obj (.const:_ZTVN10__cxxabiv117__class_type_infoE)
                  00012e50    00000010                                   : typeinfo.c.obj (.const:_ZTVN10__cxxabiv120__si_class_type_infoE)
                  00012e60    00000010                                   : typeinfo.c.obj (.const:_ZTVN10__cxxabiv121__vmi_class_type_infoE)
                  00012e70    0000000d                                   : stdlib_typeinfo.cpp.obj (.const:.typeinfo:_ZTSSt9type_info)
                  00012e7d    00000003     --HOLE-- [fill = 0]
                  00012e80    0000000c     IPAddress.obj (.const:.typeinfo:_ZTI9IPAddress)
                  00012e8c    0000000c     rtsv7M4_T_le_v4SPD16_eabi.lib : typeinfo.c.obj (.const:.typeinfo:_ZTIN10__cxxabiv117__class_type_infoE)
                  00012e98    0000000c                                   : typeinfo.c.obj (.const:.typeinfo:_ZTIN10__cxxabiv120__si_class_type_infoE)
                  00012ea4    0000000c                                   : typeinfo.c.obj (.const:.typeinfo:_ZTIN10__cxxabiv121__vmi_class_type_infoE)
                  00012eb0    0000000b     IPAddress.obj (.const:.typeinfo:_ZTS9IPAddress)
                  00012ebb    0000000b     Dhcp.obj (.const:.typeinfo:_ZTS9Printable)
                  00012ec6    0000000b     UIPClient.obj (.const:.typeinfo:_ZTS9UIPClient)
                  00012ed1    0000000b     UIPServer.obj (.const:.typeinfo:_ZTS9UIPServer)
                  00012edc    00000008     Clock.obj (.const:$P$T1$2)
                  00012ee4    00000008     Telecom_Ethernet.obj (.const:.string:$P$T7$12)
                  00012eec    00000008     UIPUdp.obj (.const:.typeinfo:_ZTI3UDP)
                  00012ef4    00000008     Print.obj (.const:.typeinfo:_ZTI5Print)
                  00012efc    00000008     UIPClient.obj (.const:.typeinfo:_ZTI6Client)
                  00012f04    00000008     UIPServer.obj (.const:.typeinfo:_ZTI6Server)
                  00012f0c    00000008     Dhcp.obj (.const:.typeinfo:_ZTI9Printable)
                  00012f14    00000008     rtsv7M4_T_le_v4SPD16_eabi.lib : stdlib_typeinfo.cpp.obj (.const:.typeinfo:_ZTISt9type_info)
                  00012f1c    00000008     UIPClient.obj (.const:.typeinfo:_ZTS6Client)
                  00012f24    00000008     UIPServer.obj (.const:.typeinfo:_ZTS6Server)
                  00012f2c    00000008     UIPUdp.obj (.const:.typeinfo:_ZTS6UIPUDP)
                  00012f34    00000007     Print.obj (.const:.typeinfo:_ZTS5Print)
                  00012f3b    00000006     Telecom_Ethernet.obj (.const:.string:$P$T3$1)
                  00012f41    00000006     UIPEthernet.obj (.const:.string:$P$T6$1)
                  00012f47    00000006     Telecom_Ethernet.obj (.const:.string:$P$T6$8)
                  00012f4d    00000006     uip_arp.obj (.const:broadcast_ethaddr)
                  00012f53    00000005     UIPUdp.obj (.const:.typeinfo:_ZTS3UDP)
                  00012f58    00000004     uip.obj (.const:all_ones_addr)
                  00012f5c    00000004     uip.obj (.const:all_zeroes_addr)
                  00012f60    00000004     uip_arp.obj (.const:broadcast_ipaddr)

.cinit     0    00012f88    00000090     
                  00012f88    00000055     (.cinit..data.load) [load image, compression = lzss]
                  00012fdd    00000003     --HOLE-- [fill = 0]
                  00012fe0    0000000c     (__TI_handler_table)
                  00012fec    00000004     --HOLE-- [fill = 0]
                  00012ff0    00000008     (.cinit..bss.load) [load image, compression = zero_init]
                  00012ff8    00000008     (.cinit..vtable.load) [load image, compression = zero_init]
                  00013000    00000018     (__TI_cinit_table)

.init_array 
*          0    00012f64    00000024     
                  00012f64    00000004     IPAddress.obj (.init_array)
                  00012f68    00000004     UIPUdp.obj (.init_array)
                  00012f6c    00000004     UIPServer.obj (.init_array)
                  00012f70    00000004     UIPEthernet.obj (.init_array)
                  00012f74    00000004     UIPClient.obj (.init_array)
                  00012f78    00000004     Dns.obj (.init_array)
                  00012f7c    00000004     Dhcp.obj (.init_array)
                  00012f80    00000004     main.obj (.init_array)
                  00012f84    00000004     Telecom_Ethernet.obj (.init_array)

.vtable    0    20000000    0000026c     UNINITIALIZED
                  20000000    0000026c     driverlib.lib : interrupt.obj (.vtable)

.bss       0    2000026c    000027d6     UNINITIALIZED
                  2000026c    00000a34     (.common:ethernet_rx_buff)
                  20000ca0    00000a30     (.common:ethernet_tx_buff)
                  200016d0    00000230     (.common:_ZN10MemoryPool6blocksE)
                  20001900    000001fc     (.common:gprs_rx_buff)
                  20001afc    000001fc     (.common:gprs_tx_buff)
                  20001cf8    00000188     (.common:dummy_json_string)
                  20001e80    0000017c     (.common:adc)
                  20001ffc    00000130     (.common:display_tx)
                  2000212c    00000120     rtsv7M4_T_le_v4SPD16_eabi.lib : trgmsg.c.obj (.bss:_CIOBUF_)
                  2000224c    000000d6     (.common:cloud_config)
                  20002322    00000002     (.common:BCD_MODE)
                  20002324    000000a0     (.common:display_uart_rx)
                  200023c4    000000a0     (.common:pc_uart_rx)
                  20002464    00000080     (.common:e2p_cloud_config)
                  200024e4    00000080     (.common:uip_conns)
                  20002564    00000070     (.common:_ZN9UIPClient8all_dataE)
                  200025d4    00000064     (.common:uip_buf)
                  20002638    00000060     uip_arp.obj (.bss:arp_table)
                  20002698    0000005c     UIPEthernet.obj (.bss:s_dhcp)
                  200026f4    00000050     (.common:pc_uart_tx)
                  20002744    00000043     (.common:gps)
                  20002787    00000040     (.common:FLR_log_data)
                  200027c7    00000040     (.common:FL_log_data)
                  20002807    00000001     UIPEthernet.obj (.bss:UIPEthernet)
                  20002808    00000040     (.common:uip_udp_conns)
                  20002848    00000036     (.common:ram_data)
                  2000287e    0000001f     (.common:time_main)
                  2000289d    0000001c     (.common:measurements)
                  200028b9    00000003     (.common:relay_state)
                  200028bc    00000014     (.common:gprs)
                  200028d0    00000010     Telecom_Ethernet.obj (.bss:Eclient)
                  200028e0    00000010     Telecom_Ethernet.obj (.bss:client)
                  200028f0    00000010     (.common:e2p_device_info)
                  20002900    00000010     (.common:e2p_location_info)
                  20002910    00000010     (.common:freq_updated_data)
                  20002920    0000000e     (.common:scheduler)
                  2000292e    0000000c     Telecom_Ethernet.obj (.bss)
                  2000293a    0000000c     (.common:Alarms)
                  20002946    0000000b     (.common:Telecom_Ethernet)
                  20002951    00000002     (.common:EXTI_cnt)
                  20002953    00000001     (.common:System_mode)
                  20002954    00000008     Dhcp.obj (.bss)
                  2000295c    00000008     Dhcp.obj (.bss:INADDR_NONE)
                  20002964    00000008     Dns.obj (.bss:INADDR_NONE)
                  2000296c    00000008     IPAddress.obj (.bss:INADDR_NONE)
                  20002974    00000008     Telecom_Ethernet.obj (.bss:INADDR_NONE)
                  2000297c    00000008     UIPClient.obj (.bss:INADDR_NONE)
                  20002984    00000008     UIPEthernet.obj (.bss:INADDR_NONE)
                  2000298c    00000008     UIPServer.obj (.bss:INADDR_NONE)
                  20002994    00000008     UIPUdp.obj (.bss:INADDR_NONE)
                  2000299c    00000008     main.obj (.bss:INADDR_NONE)
                  200029a4    00000008     UIPEthernet.obj (.bss:_ZN16UIPEthernetClass17_dnsServerAddressE)
                  200029ac    00000008     uip.obj (.bss)
                  200029b4    00000008     (.common:e2p_config_time)
                  200029bc    00000008     (.common:e2p_router_config)
                  200029c4    00000008     (.common:gps_data)
                  200029cc    00000008     (.common:parmbuf)
                  200029d4    00000008     (.common:uip_listenports)
                  200029dc    00000007     (.common:gps_date_time)
                  200029e3    00000001     (.common:gps_handler_state)
                  200029e4    00000006     (.common:_ZN15Enc28J60Network10receivePktE)
                  200029ea    00000006     (.common:time_stamp)
                  200029f0    00000004     UIPClient.obj (.bss:_ZZN9UIPClient7connectE9IPAddresstE4conn)
                  200029f4    00000004     uip_arp.obj (.bss:ipaddr)
                  200029f8    00000004     uip.obj (.bss:iss)
                  200029fc    00000004     uip_arp.obj (.bss)
                  20002a00    00000004     (.common:Telecom_server_query)
                  20002a04    00000004     (.common:_ZN16UIPEthernetClass14periodic_timerE)
                  20002a08    00000004     (.common:__dso_handle)
                  20002a0c    00000004     (.common:_millis)
                  20002a10    00000004     (.common:startTime)
                  20002a14    00000004     (.common:u32DelayCounter)
                  20002a18    00000004     (.common:uip_acc32)
                  20002a1c    00000004     (.common:uip_appdata)
                  20002a20    00000004     (.common:uip_conn)
                  20002a24    00000004     (.common:uip_draddr)
                  20002a28    00000004     (.common:uip_hostaddr)
                  20002a2c    00000004     (.common:uip_netmask)
                  20002a30    00000004     (.common:uip_sappdata)
                  20002a34    00000004     (.common:uip_udp_conn)
                  20002a38    00000002     (.common:_ZN15Enc28J60Network13nextPacketPtrE)
                  20002a3a    00000002     (.common:gprs_rx_isr_handler)
                  20002a3c    00000002     (.common:uip_len)
                  20002a3e    00000002     (.common:uip_slen)
                  20002a40    00000001     (.common:uip_flags)
                  20002a41    00000001     (.common:voltage_mode)

.stack     0    20002a48    00001800     UNINITIALIZED
                  20002a48    00000004     rtsv7M4_T_le_v4SPD16_eabi.lib : boot_cortex_m.c.obj (.stack)
                  20002a4c    000017fc     --HOLE--

.data      0    20004248    000000b8     UNINITIALIZED
                  20004248    0000001b     Telecom_server_query.obj (.data:server_response_str)
                  20004263    00000004     Enc28J60Network.obj (.data)
                  20004267    00000001     Dhcp.obj (.data)
                  20004268    00000010     ADC_Core.obj (.data)
                  20004278    00000010     flash_logger.obj (.data:FL_data)
                  20004288    00000010     rtsv7M4_T_le_v4SPD16_eabi.lib : tmzone.c.obj (.data:_tz)
                  20004298    0000000d     Telecom_Ethernet.obj (.data)
                  200042a5    00000002     IO_cntrl.obj (.data)
                  200042a7    00000001     UIPClient.obj (.data:_ZZN9UIPClient7connectE9IPAddresstE10first_call)
                  200042a8    0000000c     rtsv7M4_T_le_v4SPD16_eabi.lib : exit.c.obj (.data:$O1$$)
                  200042b4    0000000c     gps.obj (.data)
                  200042c0    00000008     rtsv7M4_T_le_v4SPD16_eabi.lib : _lock.c.obj (.data:$O1$$)
                  200042c8    00000008                                   : memory.c.obj (.data:$O1$$)
                  200042d0    00000008     UIPEthernet.obj (.data)
                  200042d8    00000008     UartCore.obj (.data)
                  200042e0    00000008     main.obj (.data)
                  200042e8    00000006     uip.obj (.data:uip_ethaddr)
                  200042ee    00000002     UIPClient.obj (.data:_ZZN9UIPClient7connectE9IPAddresstE7timeout)
                  200042f0    00000004     SysTick_Timer.obj (.data)
                  200042f4    00000004     _common.obj (.data)
                  200042f8    00000004     rtsv7M4_T_le_v4SPD16_eabi.lib : dtor_list.c.obj (.data)
                  200042fc    00000004                                   : rand.c.obj (.data)

.sysmem    0    20004300    00000010     UNINITIALIZED
                  20004300    00000010     rtsv7M4_T_le_v4SPD16_eabi.lib : memory.c.obj (.sysmem)

__llvm_prf_cnts 
*          0    20000000    00000000     UNINITIALIZED

MODULE SUMMARY

       Module                         code    ro data   rw data
       ------                         ----    -------   -------
    .\
       tm4c1233e6pz_startup_ccs.obj   12      620       0      
    +--+------------------------------+-------+---------+---------+
       Total:                         12      620       0      
                                                               
    .\Sources\
       Telecom_Ethernet.obj           5280    49        5296   
       Clock.obj                      4828    44        37     
       gps.obj                        4024    0         95     
       flash_logger.obj               3688    0         214    
       Telecom_server_query.obj       2902    0         423    
       E2P.obj                        2528    0         390    
       PC_Cmds.obj                    2812    0         1      
       IO_cntrl.obj                   2688    0         10     
       flashCore.obj                  2662    0         0      
       ADC_Core.obj                   2080    0         424    
       main.obj                       2364    4         28     
       UartCore.obj                   1468    0         712    
       gprs.obj                       560     0         1038   
       _common.obj                    1228    65        4      
       DS3231.obj                     528     0         0      
       SysTick_Timer.obj              440     0         22     
       delay.obj                      56      0         0      
       SPI.obj                        44      0         0      
    +--+------------------------------+-------+---------+---------+
       Total:                         40180   162       8694   
                                                               
    .\Sources\UIPEthernet\
       UIPClient.obj                  3192    267       127    
       Dhcp.obj                       3184    43        21     
       UIPEthernet.obj                2800    10        121    
       UIPUdp.obj                     1976    273       8      
       Dns.obj                        1484    4         8      
       UIPServer.obj                  800     135       8      
    +--+------------------------------+-------+---------+---------+
       Total:                         13436   732       293    
                                                               
    .\Sources\UIPEthernet\mbed\
       Print.obj                      1816    31        0      
       IPAddress.obj                  400     47        8      
       itoa.obj                       402     0         0      
       millis.obj                     28      0         4      
    +--+------------------------------+-------+---------+---------+
       Total:                         2646    78        12     
                                                               
    .\Sources\UIPEthernet\utility\
       uip.obj                        5476    8         355    
       Enc28J60Network.obj            2964    0         12     
       uip_arp.obj                    1508    10        104    
       mempool.obj                    752     0         560    
    +--+------------------------------+-------+---------+---------+
       Total:                         10700   18        1031   
                                                               
    C:/ti/TivaWare_C_Series-2.2.0.295/driverlib/ccs/Debug/driverlib.lib
       gpio.obj                       866     552       0      
       sysctl.obj                     786     108       0      
       interrupt.obj                  172     20        620    
       eeprom.obj                     444     0         0      
       adc.obj                        324     0         0      
       uart.obj                       194     0         0      
       i2c.obj                        142     0         0      
       ssi.obj                        102     0         0      
       systick.obj                    56      0         0      
       cpu.obj                        12      0         0      
    +--+------------------------------+-------+---------+---------+
       Total:                         3098    680       620    
                                                               
    C:\ti\ccs1110\ccs\tools\compiler\ti-cgt-arm_20.2.6.LTS\lib\rtsv7M4_T_le_v4SPD16_eabi.lib
       mktime64.c.obj                 696     96        0      
       memory.c.obj                   672     0         8      
       fd_add_t2.asm.obj              438     0         0      
       trgmsg.c.obj                   108     0         288    
       fd_div_t2.asm.obj              310     0         0      
       fd_cmp_t2.asm.obj              268     0         0      
       ctype.c.obj                    0       257       0      
       fd_mul_t2.asm.obj              252     0         0      
       typeinfo.c.obj                 54      193       0      
       dtor_list.c.obj                204     0         8      
       memcpy_t2.asm.obj              156     0         0      
       ull_div_t2.asm.obj             150     0         0      
       memset_t2.asm.obj              122     0         0      
       ll_div_t2.asm.obj              110     0         0      
       copy_decompress_lzss.c.obj     104     0         0      
       autoinit.c.obj                 96      0         0      
       hosttime.c.obj                 96      0         0      
       rand.c.obj                     88      0         4      
       exit.c.obj                     76      0         12     
       atoi.c.obj                     76      0         0      
       fd_toi_t2.asm.obj              72      0         0      
       fd_tou_t2.asm.obj              68      0         0      
       u_divt2.asm.obj                64      0         0      
       boot_cortex_m.c.obj            52      0         0      
       strstr.c.obj                   52      0         0      
       i_tofd_t2.asm.obj              46      0         0      
       strncmp.c.obj                  44      0         0      
       memcmp.c.obj                   36      0         0      
       u_tofd_t2.asm.obj              32      0         0      
       ll_mul_t2.asm.obj              24      0         0      
       strcmp.c.obj                   24      0         0      
       stdlib_typeinfo.cpp.obj        2       21        0      
       guard.c.obj                    22      0         0      
       strcpy.c.obj                   20      0         0      
       strlen.c.obj                   20      0         0      
       isdigit.c.obj                  16      0         0      
       time64.c.obj                   16      0         0      
       tmzone.c.obj                   0       0         16     
       copy_decompress_none.c.obj     14      0         0      
       copy_zero_init.c.obj           12      0         0      
       new.cpp.obj                    12      0         0      
       _lock.c.obj                    2       0         8      
       hostopen.c.obj                 0       0         8      
       pure_virt.c.obj                6       0         0      
       error.c.obj                    4       0         0      
       pre_init.c.obj                 4       0         0      
       div0.asm.obj                   2       0         0      
    +--+------------------------------+-------+---------+---------+
       Total:                         4742    567       352    
                                                               
       Heap:                          0       0         16     
       Stack:                         0       0         6144   
       Linker Generated:              0       137       0      
    +--+------------------------------+-------+---------+---------+
       Grand Total:                   74814   2994      17162  


LINKER GENERATED COPY TABLES

__TI_cinit_table @ 00013000 records: 3, size/record: 8, table size: 24
	.data: load addr=00012f88, load size=00000055 bytes, run addr=20004248, run size=000000b8 bytes, compression=lzss
	.bss: load addr=00012ff0, load size=00000008 bytes, run addr=2000026c, run size=000027d6 bytes, compression=zero_init
	.vtable: load addr=00012ff8, load size=00000008 bytes, run addr=20000000, run size=0000026c bytes, compression=zero_init


LINKER GENERATED HANDLER TABLE

__TI_handler_table @ 00012fe0 records: 3, size/record: 4, table size: 12
	index: 0, handler: __TI_zero_init
	index: 1, handler: __TI_decompress_lzss
	index: 2, handler: __TI_decompress_none


GLOBAL SYMBOLS: SORTED ALPHABETICALLY BY Name 

address   name                                                                                                                          
-------   ----                                                                                                                          
00012609  ADCIntClear                                                                                                                   
00011d35  ADCIntStatus                                                                                                                  
00012059  ADCProcessorTrigger                                                                                                           
0001166d  ADCSequenceConfigure                                                                                                          
00011f95  ADCSequenceDataGet                                                                                                            
00012431  ADCSequenceEnable                                                                                                             
000111af  ADCSequenceStepConfigure                                                                                                      
2000293a  Alarms                                                                                                                        
20002322  BCD_MODE                                                                                                                      
000126b7  C$$EXIT                                                                                                                       
00011b1f  C$$IO$$                                                                                                                       
0001253b  CPUcpsie                                                                                                                      
0000df0b  DEBUGUARTIntHandler                                                                                                           
00011989  EEPROMInit                                                                                                                    
00010ead  EEPROMProgram                                                                                                                 
00011a81  EEPROMRead                                                                                                                    
20004263  ENC28J60ControlCS                                                                                                             
20002951  EXTI_cnt                                                                                                                      
200028d0  Eclient                                                                                                                       
20002787  FLR_log_data                                                                                                                  
200027c7  FL_log_data                                                                                                                   
0000a0b9  GPIODIntHandler                                                                                                               
00011d91  GPIODirModeSet                                                                                                                
0001266b  GPIOIntClear                                                                                                                  
00012547  GPIOIntEnable                                                                                                                 
00012071  GPIOIntRegister                                                                                                               
0001243f  GPIOIntStatus                                                                                                                 
00011571  GPIOIntTypeSet                                                                                                                
000105b1  GPIOPadConfigSet                                                                                                              
000116bd  GPIOPinConfigure                                                                                                              
00012671  GPIOPinRead                                                                                                                   
00012191  GPIOPinTypeADC                                                                                                                
000121a7  GPIOPinTypeGPIOInput                                                                                                          
00012025  GPIOPinTypeGPIOOutput                                                                                                         
000121bd  GPIOPinTypeI2C                                                                                                                
000121d3  GPIOPinTypeI2CSCL                                                                                                             
000121e9  GPIOPinTypeSSI                                                                                                                
000121ff  GPIOPinTypeUART                                                                                                               
00012677  GPIOPinWrite                                                                                                                  
00011455  HOSTtime64                                                                                                                    
0001263b  I2CMasterBusy                                                                                                                 
0001268f  I2CMasterControl                                                                                                              
00012693  I2CMasterDataGet                                                                                                              
00012697  I2CMasterDataPut                                                                                                              
00012613  I2CMasterEnable                                                                                                               
00011709  I2CMasterInitExpClk                                                                                                           
00012643  I2CMasterSlaveAddrSet                                                                                                         
0001244d  I2CRxFIFOFlush                                                                                                                
0001245b  I2CTxFIFOFlush                                                                                                                
00011385  IntEnable                                                                                                                     
00012391  IntMasterEnable                                                                                                               
00011b61  IntRegister                                                                                                                   
0000e095  LTEUARTIntHandler                                                                                                             
20004270  NE_ADC_RAW_MAX                                                                                                                
20004268  PN_ADC_RAW_MAX                                                                                                                
000125fd  ResetISR                                                                                                                      
00012f64  SHT$$INIT_ARRAY$$Base                                                                                                         
00012f88  SHT$$INIT_ARRAY$$Limit                                                                                                        
00011a09  SSIConfigSetExpClk                                                                                                            
00012349  SSIDataGetNonBlocking                                                                                                         
00012469  SSIDataPutNonBlocking                                                                                                         
0001261d  SSIEnable                                                                                                                     
000109c1  SysCtlClockGet                                                                                                                
00010cd5  SysCtlClockSet                                                                                                                
0001267d  SysCtlDelay                                                                                                                   
00011b95  SysCtlPeripheralDisable                                                                                                       
00011bc9  SysCtlPeripheralEnable                                                                                                        
00011ab9  SysCtlPeripheralReady                                                                                                         
0001161d  SysCtlPeripheralReset                                                                                                         
000123a1  SysCtlReset                                                                                                                   
00012259  SysTickEnable                                                                                                                 
0001226d  SysTickIntEnable                                                                                                              
000100cd  SysTickIntHandler                                                                                                             
000123b1  SysTickPeriodSet                                                                                                              
00012011  SysTick_Handler                                                                                                               
20002953  System_mode                                                                                                                   
20002946  Telecom_Ethernet                                                                                                              
20002a00  Telecom_server_query                                                                                                          
0001264b  UARTBusy                                                                                                                      
00012477  UARTCharGetNonBlocking                                                                                                        
00012485  UARTCharPutNonBlocking                                                                                                        
00012493  UARTCharsAvail                                                                                                                
00011831  UARTConfigSetExpClk                                                                                                           
00011f15  UARTDisable                                                                                                                   
00012281  UARTEnable                                                                                                                    
0001269b  UARTIntClear                                                                                                                  
00012653  UARTIntEnable                                                                                                                 
00012627  UARTIntStatus                                                                                                                 
20002807  UIPEthernet                                                                                                                   
0000b581  _Z10Chip_Erasev                                                                                                               
0000d05d  _Z10GetAdcDatav                                                                                                               
0000feff  _Z10I2CReceivev                                                                                                               
0000a479  _Z10ToggleLEDsv                                                                                                               
00002e21  _Z10asUnixTimeiiiiii                                                                                                          
000053a1  _Z10clear_logsv                                                                                                               
00008a7d  _Z10getREQmodev                                                                                                               
0000efdb  _Z10my_sprintfPciz                                                                                                            
00008a69  _Z10setREQmode13gprs_status_t                                                                                                 
00003889  _Z10update_rtcPci                                                                                                             
00004c3d  _Z10utcTOlocalP15gps_date_time_t                                                                                              
00001fc1  _Z10ws_connectv                                                                                                               
000023a5  _Z10ws_disconnv                                                                                                               
0000a50d  _Z11SetODU_Mode14voltage_mode_t                                                                                               
0000b3af  _Z11SetSI_Inputv                                                                                                              
0000b3d1  _Z11SetSO_Inputv                                                                                                              
0000e1b5  _Z11Usendbufferj                                                                                                              
000053e7  _Z11clear_flashv                                                                                                              
0000f3a7  _Z11count_commaPct                                                                                                            
0000afad  _Z11flashCopyMRPcS_                                                                                                           
0000ef85  _Z11getChecksumPhc                                                                                                            
0000315d  _Z11getDateTimev                                                                                                              
00005445  _Z11get_log_cnti                                                                                                              
0000fcbd  _Z11get_rx_dataPc                                                                                                             
00004071  _Z11gps_handlerv                                                                                                              
0000c3ad  _Z11init_configv                                                                                                              
0000fe49  _Z11setNWstatus13gprs_status_t                                                                                                
0000fea1  _Z11vRTCI2CInitv                                                                                                              
0000c8bd  _Z12ADC_PortIniti                                                                                                             
00007f99  _Z12Query_decodePcPKcS_i                                                                                                      
0000b2cf  _Z12Sector_Erasem                                                                                                             
0000b3a1  _Z12SetSI_Outputv                                                                                                             
0000b3c3  _Z12SetSO_Outputv                                                                                                             
00002e71  _Z12calcTimeDiff12time_stamp_tS_                                                                                              
0000fcef  _Z12check_stringPKcPcPi                                                                                                       
000053c5  _Z12clear_log_idv                                                                                                             
0000ae0b  _Z12flashSwResetv                                                                                                             
00005243  _Z12flashWriteTRv                                                                                                             
0000fe5d  _Z12getNW_statusv                                                                                                             
0000c17f  _Z12getRAM_Alarmv                                                                                                             
00003e49  _Z12get_locationv                                                                                                             
00005501  _Z12get_log_dataimPc                                                                                                          
0000285b  _Z12get_pkt_recvv                                                                                                             
00003d6b  _Z12is_leap_yearh                                                                                                             
000080b9  _Z12server_queryv                                                                                                             
0000c147  _Z12setRAM_Alarm16Alarm_sts_bits_tb                                                                                           
00002861  _Z12set_pkt_recvb                                                                                                             
0000a44d  _Z12vEXTIpinInitv                                                                                                             
0000aa01  _Z12vEarthDetectv                                                                                                             
0000a3dd  _Z12vGPIO_Togglejhh                                                                                                           
0000a20f  _Z12vLEDGPIOInitv                                                                                                             
0000dea3  _Z12vLTEUARTInitv                                                                                                             
00011dbd  _Z13SPI_transrecvjh                                                                                                           
00003b25  _Z13add_date_timeP12time_stamp_tS0_j                                                                                          
0000a67d  _Z13controlRelaysv                                                                                                            
0000f21d  _Z13delete_SubStrPcS_c                                                                                                        
0000ae23  _Z13enable_wp_pinv                                                                                                            
0000183f  _Z13ethernet_initv                                                                                                            
0000e29d  _Z13flushRxBufferi                                                                                                            
0000e2d1  _Z13flushTxBufferi                                                                                                            
0000ce0d  _Z13getODUCurrentv                                                                                                            
0000ced1  _Z13getODUVoltagev                                                                                                            
0000c1bd  _Z13getRAM_Statusv                                                                                                            
0000bb4f  _Z13get_device_idv                                                                                                            
0000c185  _Z13setRAM_Statushb                                                                                                           
0000baad  _Z13set_device_idPc                                                                                                           
000101fd  _Z13vMAIN_DelayMSj                                                                                                            
0000e0f9  _Z13vUART_SendChrjh                                                                                                           
0000e189  _Z13vUART_SendIntji                                                                                                           
0000e117  _Z13vUART_SendStrjPKh                                                                                                         
0000ab39  _Z14Reset_Hold_Lowv                                                                                                           
00003a11  _Z14StrToTimeStampPh                                                                                                          
00011f35  _Z14__libcpp_isinfIdEbT_                                                                                                      
00011f55  _Z14__libcpp_isnanIdEbT_                                                                                                      
000025f5  _Z14ether_tcp_sendPci                                                                                                         
00002fbb  _Z14getDaysOfMonthcj                                                                                                          
0000cf95  _Z14getSMPSVoltagev                                                                                                           
00004dd9  _Z14get_gps_statusv                                                                                                           
0000a8b5  _Z14isSupplyStablev                                                                                                           
0000aef1  _Z14readContToBuffmjPc                                                                                                        
00004de5  _Z14set_gps_status12gps_status_t                                                                                              
0000de55  _Z14vDEBUGUARTInitv                                                                                                           
0000c23d  _Z14write_defaultsj                                                                                                           
00002a39  _Z15HTTP_valid_codePc                                                                                                         
0000ab47  _Z15Reset_Hold_Highv                                                                                                          
00002cc7  _Z15check_date_timePcS_                                                                                                       
000074ab  _Z15ether_cs_activev                                                                                                          
00002191  _Z15ether_ping_sendv                                                                                                          
0000ac2b  _Z15flashClrTR_Logsv                                                                                                          
00004e01  _Z15flashWriteMR_BRv                                                                                                          
0000fc7d  _Z15generateMaskKeyPh                                                                                                         
0000fe79  _Z15getServerStatusv                                                                                                          
000058ff  _Z15get_unsent_logsv                                                                                                          
0000fe0d  _Z15get_upload_datav                                                                                                          
0000fe29  _Z15get_webconn_stsv                                                                                                          
00004529  _Z15gps_pkt_parsingP10gps_info_tPc                                                                                            
0000abcf  _Z15init_flash_pinsv                                                                                                          
0000fe65  _Z15setServerStatus13gprs_status_t                                                                                            
0000fdf9  _Z15set_upload_data13upload_data_t                                                                                            
0000fe15  _Z15set_webconn_stsh                                                                                                          
0000c0fd  _Z15update_ram_datav                                                                                                          
0000a971  _Z15vEarthCheckInitv                                                                                                          
0000a945  _Z15vFreqDetectInitv                                                                                                          
0000a10d  _Z15vGPIOPortEnablev                                                                                                          
0000b5a1  _Z15vPERIPH_E2PInitv                                                                                                          
0000e145  _Z15vUART_SendBytesjPKhj                                                                                                      
0000aa1f  _Z16ControlODU_Relayh                                                                                                         
000058c9  _Z16check_unsent_logv                                                                                                         
00008add  _Z16decodeMsgPC_Uartv                                                                                                         
0000255b  _Z16ether_valid_codePc                                                                                                        
00001a7d  _Z16ethernet_handlerv                                                                                                         
0000b04d  _Z16flashEraseBackupv                                                                                                         
0000af65  _Z16flashEraseMasterv                                                                                                         
0000afe9  _Z16flashEraseSectormm                                                                                                        
00005209  _Z16flashGetSerMR_BRv                                                                                                         
00008ab5  _Z16getClientMSGTypev                                                                                                         
00008a99  _Z16getServerReqTypev                                                                                                         
00003819  _Z16get_present_timeP12time_stamp_t                                                                                           
0000aac5  _Z16get_router_statev                                                                                                         
00009549  _Z16get_system_statev                                                                                                         
00008aa1  _Z16setClientMSGType21client_message_type_t                                                                                   
00008a85  _Z16setServerReqType21server_request_type_t                                                                                   
0000aab1  _Z16set_router_state18relay_ctrl_state_t                                                                                      
00009535  _Z16set_system_state10sys_mode_t                                                                                              
00002b79  _Z16update_date_timev                                                                                                         
000017d1  _Z16vETHERNETSPIInitv                                                                                                         
0000a1c1  _Z16vGPIO_UnlockGPIOjh                                                                                                        
0000a225  _Z16vPERIPH_GPIOInitv                                                                                                         
0000deff  _Z16vPERIPH_UARTInitv                                                                                                         
00005369  _Z16validate_FL_addrcm                                                                                                        
0000889d  _Z16websocket_packetPh                                                                                                        
0000a991  _Z17FREQDetIntHandlerv                                                                                                        
000089a5  _Z17HandleQueryStatesv                                                                                                        
00003075  _Z17check_expire_time12time_stamp_tS_                                                                                         
0000be05  _Z17cloud_config_datav                                                                                                        
0000b935  _Z17e2p_read_cfg_timev                                                                                                        
0000b845  _Z17e2p_read_locationv                                                                                                        
000074b9  _Z17ether_cs_inactivev                                                                                                        
00001ef9  _Z17ether_tcp_connectv                                                                                                        
0000ab71  _Z17flash_port_assignv                                                                                                        
0000f2e1  _Z17generateRandomKeyiPc                                                                                                      
0000cf2d  _Z17getBatteryVoltagev                                                                                                        
000082cd  _Z17prepare_JSON_pcktv                                                                                                        
00005b43  _Z17save_TELECOM_datav                                                                                                        
00009517  _Z17tx_pending_dataPCv                                                                                                        
0000c1c3  _Z17vPERIPH_ClockInitv                                                                                                        
0000fddf  _Z18check_string_nobufPKc                                                                                                     
00002d9f  _Z18convertToEpochTimePK12time_stamp_t                                                                                        
0000b6a9  _Z18e2p_read_cloud_cfgv                                                                                                       
0000b8db  _Z18e2p_write_cfg_timev                                                                                                       
0000b7f1  _Z18e2p_write_locationv                                                                                                       
00002811  _Z18ether_respos_recvdPc                                                                                                      
0000b0a1  _Z18flashPacketProgramPctm                                                                                                    
0000c479  _Z18getRelay_CtrlStatev                                                                                                       
0000bdd3  _Z18get_fixed_locationv                                                                                                       
00008a0d  _Z18prepare_server_pktv                                                                                                       
0000a26d  _Z18readBCD_SelectorSWv                                                                                                       
0000bbc1  _Z18set_fixed_locationPc                                                                                                      
0000a403  _Z18vInput_PollingReadv                                                                                                       
0000aa59  _Z19ControlRouter_Relayh                                                                                                      
0000d023  _Z19calculate_NE_AC_ADCv                                                                                                      
0000cfe9  _Z19calculate_PN_AC_ADCv                                                                                                      
00003dc1  _Z19check_dateTime_dataP12time_stamp_t                                                                                        
0000b767  _Z19e2p_read_device_cfgv                                                                                                      
0000b679  _Z19e2p_write_cloud_cfgv                                                                                                      
0000ac75  _Z19flashClrFreqUpdLogsv                                                                                                      
000025ab  _Z19flush_ether_rx_buffv                                                                                                      
000025cb  _Z19flush_ether_tx_buffv                                                                                                      
0000fe43  _Z19get_gprs_connct_stsv                                                                                                      
00008a63  _Z19get_pending_requestv                                                                                                      
0000a4a1  _Z19init_ODU_Supplypinsv                                                                                                      
0000fe2f  _Z19set_gprs_connct_stsh                                                                                                      
00008a4f  _Z19set_pending_requestb                                                                                                      
00004e99  _Z19updateFlashCurrAddrv                                                                                                      
0000c555  _Z19update_alarm_statusv                                                                                                      
0000a3b9  _Z19vInit_InputTestpinsv                                                                                                      
000100b1  _Z19vPERIPH_SystickInitv                                                                                                      
0000b3ff  _Z20Read_Status_Registerv                                                                                                     
0000b737  _Z20e2p_write_device_cfgv                                                                                                     
00005667  _Z20flashReadFreqUpdDataP19freq_updated_data_tmi                                                                              
0000558f  _Z21flashWriteFreqUpdDataP19freq_updated_data_tm                                                                              
0000ce71  _Z21getRouter1_DC_currentv                                                                                                    
00002855  _Z21get_ethernet_NWstatusv                                                                                                    
00005695  _Z21readFreqUpdData_flashv                                                                                                    
0000283b  _Z21set_ethernet_NWstatush                                                                                                    
0000acc1  _Z22addDummyFL_TelecomLogsj                                                                                                   
000028c1  _Z22check_ethernet_messagev                                                                                                   
00002719  _Z22ether_websocket_packetPh                                                                                                  
0000251d  _Z22ethernet_pong_receivedPh                                                                                                  
000051db  _Z22flashGetCurrUploadAddrc                                                                                                   
00002a89  _Z22resetEther_SubHandlersv                                                                                                   
00011945  _Z23__finalize_destructionsPP20a_needed_destructionPv                                                                         
0000b5ef  _Z23e2p_read_voltage_configv                                                                                                  
00002835  _Z23get_ethernet_connct_stsv                                                                                                  
000084fd  _Z23prepare_unsentJSON_pcktv                                                                                                  
0000b309  _Z23remove_block_protectionv                                                                                                  
000059bd  _Z23save_OfflineTelecomDatav                                                                                                  
0000281b  _Z23set_ethernet_connct_stsh                                                                                                  
00004a91  _Z23updateGpsDateTimeToBuffP15gps_date_time_t                                                                                 
0000e229  _Z23vUART_CheckFrameTimeouti                                                                                                  
0000587d  _Z24decrement_unsent_log_cnti                                                                                                 
0000b5af  _Z24e2p_write_voltage_configv                                                                                                 
000058a9  _Z24increment_unsent_log_cnti                                                                                                 
00008b03  _Z24preparePC_ResponsePacket5cmd_tPchii                                                                                       
000118bd  _Z25__add_destruction_to_listPP20a_needed_destructionPFYvPvES2_S2_                                                            
0000f353  _Z25count_doubleSquareBracketPcj                                                                                              
000051b5  _Z25flashGetCurrDataWriteAddrc                                                                                                
0000e339  _Z25prepare_graphical_tx_buffjPch                                                                                             
0000aae7  _Z26get_router_selection_statev                                                                                               
00005a3d  _Z26prepare_OfflineTelecomDatav                                                                                               
0000aacd  _Z26set_router_selection_state18relay_ctrl_state_t                                                                            
0000c1cd  _Z26vMAIN_InitClockPeripheralsv                                                                                               
0000556b  _Z27flashClearFreqUpdatedConfigv                                                                                              
00005549  _Z27flashEraseFreqUpdDataSectorv                                                                                              
000055d1  _Z27flashWriteFreqUpdatedConfigv                                                                                              
0000aa8d  _Z28ControlRouterSelection_Relayh                                                                                             
00007405  _Z36enc28J60_mempool_block_move_callbackttt                                                                                   
0001235b  _Z3absl                                                                                                                       
0000b32b  _Z4WBPRc                                                                                                                      
0000ae6d  _Z4WRCRc                                                                                                                      
0000ae57  _Z4WRDIv                                                                                                                      
0000ae45  _Z4WRENv                                                                                                                      
00012089  _Z5isinfIdENSt3__29enable_ifIXaasr3std3__213is_arithmeticIT_EE5valuesr3std3__214numeric_limitsIS2_EE12has_infinityEbE4typeES2_
000120a1  _Z5isnanIdENSt3__29enable_ifIXsr3std3__217is_floating_pointIT_EE5valueEbE4typeES2_                                            
0000ae9f  _Z6CE_Lowv                                                                                                                    
0000b3df  _Z6SI_Lowv                                                                                                                    
0000ab55  _Z6WP_Lowv                                                                                                                    
0000ae91  _Z7CE_Highv                                                                                                                   
0000aec1  _Z7SCK_Lowv                                                                                                                   
0000b3ef  _Z7SI_Highv                                                                                                                   
0000ab63  _Z7WP_Highv                                                                                                                   
0000b733  _Z7get_urlv                                                                                                                   
000035b5  _Z7isDT_okv                                                                                                                   
0000cb01  _Z7readADCh                                                                                                                   
0000f1cd  _Z7reversePci                                                                                                                 
0000b9e9  _Z7set_urlPc                                                                                                                  
0000b507  _Z8Get_Bytev                                                                                                                  
0000ff49  _Z8Read_RTCPhh                                                                                                                
0000aeb1  _Z8SCK_Highv                                                                                                                  
000054ad  _Z8get_addrim                                                                                                                 
0000f15f  _Z8intToStriPci                                                                                                               
00008c11  _Z8response5cmd_ti                                                                                                            
00011b29  _Z8sleep_usi                                                                                                                  
0000b423  _Z9Send_Byteh                                                                                                                 
0000b119  _Z9Wait_Busyv                                                                                                                 
00010011  _Z9Write_RTCPhh                                                                                                               
0000abf1  _Z9flashInitv                                                                                                                 
0001021b  _Z9my_millisv                                                                                                                 
0000f3ef  _Z9my_strstrPKcS0_i                                                                                                           
00003665  _Z9time_syncv                                                                                                                 
0000cb65  _Z9updateADC14ADC_Channels_th                                                                                                 
0000caa5  _Z9vADC0Initv                                                                                                                 
0000f469  _ZN10MemoryPool10allocBlockEt                                                                                                 
0000f699  _ZN10MemoryPool11resizeBlockEht                                                                                               
0000f6d1  _ZN10MemoryPool11resizeBlockEhtt                                                                                              
0000f445  _ZN10MemoryPool4initEv                                                                                                        
200016d0  _ZN10MemoryPool6blocksE                                                                                                       
0000f709  _ZN10MemoryPool9blockSizeEh                                                                                                   
0000f631  _ZN10MemoryPool9freeBlockEh                                                                                                   
000124a1  _ZN10__cxxabiv117__class_type_infoD0Ev                                                                                        
0001269f  _ZN10__cxxabiv117__class_type_infoD1Ev                                                                                        
0001269f  _ZN10__cxxabiv117__class_type_infoD2Ev                                                                                        
000124af  _ZN10__cxxabiv120__si_class_type_infoD0Ev                                                                                     
000126a3  _ZN10__cxxabiv120__si_class_type_infoD1Ev                                                                                     
000126a3  _ZN10__cxxabiv120__si_class_type_infoD2Ev                                                                                     
000124bd  _ZN10__cxxabiv121__vmi_class_type_infoD0Ev                                                                                    
000126a7  _ZN10__cxxabiv121__vmi_class_type_infoD1Ev                                                                                    
000126a7  _ZN10__cxxabiv121__vmi_class_type_infoD2Ev                                                                                    
00007dff  _ZN15Enc28J60Network10copyPacketEhthtt                                                                                        
00007c13  _ZN15Enc28J60Network10freePacketEv                                                                                            
000079c5  _ZN15Enc28J60Network10linkStatusEv                                                                                            
000075ff  _ZN15Enc28J60Network10readBufferEtPh                                                                                          
00007d5d  _ZN15Enc28J60Network10readPacketEhtPht                                                                                        
200029e4  _ZN15Enc28J60Network10receivePktE                                                                                             
00007c55  _ZN15Enc28J60Network10sendPacketEh                                                                                            
000075db  _ZN15Enc28J60Network10setERXRDPTEv                                                                                            
00007549  _ZN15Enc28J60Network10setReadPtrEhtt                                                                                          
000078d7  _ZN15Enc28J60Network11readRegByteEh                                                                                           
00007643  _ZN15Enc28J60Network11writeBufferEtPh                                                                                         
00007d91  _ZN15Enc28J60Network11writePacketEhtPht                                                                                       
000078f1  _ZN15Enc28J60Network12writeRegByteEhh                                                                                         
00007763  _ZN15Enc28J60Network12writeRegPairEht                                                                                         
20002a38  _ZN15Enc28J60Network13nextPacketPtrE                                                                                          
00007b3d  _ZN15Enc28J60Network13receivePacketEv                                                                                         
00007853  _ZN15Enc28J60Network15enableBroadcastEb                                                                                       
000078ad  _ZN15Enc28J60Network15enableMulticastEv                                                                                       
0000787d  _ZN15Enc28J60Network16disableBroadcastEb                                                                                      
000078c3  _ZN15Enc28J60Network16disableMulticastEv                                                                                      
20004266  _ZN15Enc28J60Network17broadcast_enabledE                                                                                      
20004264  _ZN15Enc28J60Network4bankE                                                                                                    
00007a09  _ZN15Enc28J60Network4initEPh                                                                                                  
00007e91  _ZN15Enc28J60Network6chksumEthtt                                                                                              
0000783d  _ZN15Enc28J60Network6clkoutEh                                                                                                 
20004265  _ZN15Enc28J60Network6erevidE                                                                                                  
000074c7  _ZN15Enc28J60Network6readOpEhh                                                                                                
000079dd  _ZN15Enc28J60Network7initSPIEv                                                                                                
000077e5  _ZN15Enc28J60Network7phyReadEh                                                                                                
00007919  _ZN15Enc28J60Network7powerOnEv                                                                                                
00007727  _ZN15Enc28J60Network7readRegEh                                                                                                
000076e7  _ZN15Enc28J60Network7setBankEh                                                                                                
00007513  _ZN15Enc28J60Network7writeOpEhhh                                                                                              
0000779f  _ZN15Enc28J60Network8phyWriteEht                                                                                              
0000793f  _ZN15Enc28J60Network8powerOffEv                                                                                               
00007685  _ZN15Enc28J60Network8readByteEt                                                                                               
00007741  _ZN15Enc28J60Network8writeRegEhh                                                                                              
00007975  _ZN15Enc28J60Network9PhyStatusEv                                                                                              
00007c1b  _ZN15Enc28J60Network9blockSizeEh                                                                                              
0000796f  _ZN15Enc28J60Network9geterevidEv                                                                                              
000076b7  _ZN15Enc28J60Network9writeByteEth                                                                                             
00009909  _ZN16UIPEthernetClass10linkStatusEv                                                                                           
00009997  _ZN16UIPEthernetClass10subnetMaskEv                                                                                           
200042d2  _ZN16UIPEthernetClass10uip_hdrlenE                                                                                            
200042d1  _ZN16UIPEthernetClass10uip_packetE                                                                                            
00009a3b  _ZN16UIPEthernetClass11dnsServerIPEv                                                                                          
200042d3  _ZN16UIPEthernetClass11packetstateE                                                                                           
00009611  _ZN16UIPEthernetClass12dhcp_handlerEv                                                                                         
00009e0f  _ZN16UIPEthernetClass12network_sendEv                                                                                         
00009929  _ZN16UIPEthernetClass14hardwareStatusEv                                                                                       
20002a04  _ZN16UIPEthernetClass14periodic_timerE                                                                                        
200029a4  _ZN16UIPEthernetClass17_dnsServerAddressE                                                                                     
00009f69  _ZN16UIPEthernetClass18upper_layer_chksumEh                                                                                   
0000969d  _ZN16UIPEthernetClass4initEh                                                                                                  
00009c91  _ZN16UIPEthernetClass4tickEv                                                                                                  
200042d4  _ZN16UIPEthernetClass5_dhcpE                                                                                                  
000096b3  _ZN16UIPEthernetClass5beginEPKh                                                                                               
000096c9  _ZN16UIPEthernetClass5beginEPKh9IPAddress                                                                                     
0000971d  _ZN16UIPEthernetClass5beginEPKh9IPAddressS2_                                                                                  
00009785  _ZN16UIPEthernetClass5beginEPKh9IPAddressS2_S2_                                                                               
000097fb  _ZN16UIPEthernetClass5beginEPKh9IPAddressS2_S2_S2_                                                                            
00009e81  _ZN16UIPEthernetClass6chksumEtPKht                                                                                            
00009945  _ZN16UIPEthernetClass7localIPEv                                                                                               
00009a4b  _ZN16UIPEthernetClass7netInitEPKh                                                                                             
00009f27  _ZN16UIPEthernetClass8ipchksumEv                                                                                              
00009865  _ZN16UIPEthernetClass8maintainEv                                                                                              
00009a9d  _ZN16UIPEthernetClass9configureE9IPAddressS0_S0_S0_                                                                           
000099e9  _ZN16UIPEthernetClass9gatewayIPEv                                                                                             
200042d0  _ZN16UIPEthernetClass9in_packetE                                                                                              
00009605  _ZN16UIPEthernetClassC1Ev                                                                                                     
00009605  _ZN16UIPEthernetClassC2Ev                                                                                                     
000120b9  _ZN3UDPC1Ev                                                                                                                   
00012553  _ZN3UDPC2Ev                                                                                                                   
0000e485  _ZN5Print10printFloatEdh                                                                                                      
0000e411  _ZN5Print11printNumberEmh                                                                                                     
0000e655  _ZN5Print5printEPK19__FlashStringHelper                                                                                       
0000e695  _ZN5Print5printEPKc                                                                                                           
0000e675  _ZN5Print5printERK6String                                                                                                     
0000e7f1  _ZN5Print5printERK9Printable                                                                                                  
0000e6a5  _ZN5Print5printEc                                                                                                             
0000e7c1  _ZN5Print5printEdi                                                                                                            
0000e6bd  _ZN5Print5printEhi                                                                                                            
0000e6d5  _ZN5Print5printEii                                                                                                            
0000e6e9  _ZN5Print5printEji                                                                                                            
0000e70d  _ZN5Print5printEli                                                                                                            
0000e78d  _ZN5Print5printEmi                                                                                                            
00011e3d  _ZN5Print5writeEPKc                                                                                                           
000120d1  _ZN5Print5writeEPKcj                                                                                                          
0000e611  _ZN5Print5writeEPKhj                                                                                                          
0000e805  _ZN5Print7printlnEPK19__FlashStringHelper                                                                                     
0000e847  _ZN5Print7printlnEPKc                                                                                                         
0000e827  _ZN5Print7printlnERK6String                                                                                                   
0000e997  _ZN5Print7printlnERK9Printable                                                                                                
0000e867  _ZN5Print7printlnEc                                                                                                           
0000e961  _ZN5Print7printlnEdi                                                                                                          
0000e88b  _ZN5Print7printlnEhi                                                                                                          
0000e8b9  _ZN5Print7printlnEii                                                                                                          
0000e8e3  _ZN5Print7printlnEji                                                                                                          
0000e90d  _ZN5Print7printlnEli                                                                                                          
0000e937  _ZN5Print7printlnEmi                                                                                                          
0000e9b7  _ZN5Print7printlnEv                                                                                                           
00011fb5  _ZN5PrintC1Ev                                                                                                                 
0001255f  _ZN5PrintC2Ev                                                                                                                 
000120e9  _ZN6ClientC1Ev                                                                                                                
0001256b  _ZN6ClientC2Ev                                                                                                                
00012295  _ZN6ClientD0Ev                                                                                                                
00012577  _ZN6ClientD1Ev                                                                                                                
00012583  _ZN6ClientD2Ev                                                                                                                
00012101  _ZN6ServerC1Ev                                                                                                                
0001258f  _ZN6ServerC2Ev                                                                                                                
000122a9  _ZN6ServerD0Ev                                                                                                                
0001259b  _ZN6ServerD1Ev                                                                                                                
000125a7  _ZN6ServerD2Ev                                                                                                                
0000d7cd  _ZN6UIPUDP10remotePortEv                                                                                                      
0000d279  _ZN6UIPUDP11beginPacketE9IPAddresst                                                                                           
0000d419  _ZN6UIPUDP11beginPacketEPKct                                                                                                  
0000d5c9  _ZN6UIPUDP11parsePacketEv                                                                                                     
0000d6fd  _ZN6UIPUDP4peekEv                                                                                                             
00012119  _ZN6UIPUDP4readEPcj                                                                                                           
0000d671  _ZN6UIPUDP4readEPhj                                                                                                           
0000d639  _ZN6UIPUDP4readEv                                                                                                             
0000d219  _ZN6UIPUDP4stopEv                                                                                                             
0000d803  _ZN6UIPUDP5_sendEP18uip_udp_userdata_t                                                                                        
0000d1b7  _ZN6UIPUDP5beginEt                                                                                                            
0000d73f  _ZN6UIPUDP5flushEv                                                                                                            
0000d56b  _ZN6UIPUDP5writeEPKhj                                                                                                         
0000d535  _ZN6UIPUDP5writeEh                                                                                                            
0000d771  _ZN6UIPUDP8remoteIPEv                                                                                                         
0000d611  _ZN6UIPUDP9availableEv                                                                                                        
0000d4d1  _ZN6UIPUDP9endPacketEv                                                                                                        
0000d183  _ZN6UIPUDPC1Ev                                                                                                                
0000d183  _ZN6UIPUDPC2Ev                                                                                                                
0000eb71  _ZN9DNSClient12BuildRequestEPKc                                                                                               
0000eaa3  _ZN9DNSClient13getHostByNameEPKcR9IPAddress                                                                                   
0000ec99  _ZN9DNSClient15ProcessResponseEtR9IPAddress                                                                                   
0000e9c9  _ZN9DNSClient5beginERK9IPAddress                                                                                              
0000e9df  _ZN9DNSClient9inet_atonEPKcR9IPAddress                                                                                        
00012215  _ZN9DNSClientC1Ev                                                                                                             
000124cb  _ZN9DNSClientD1Ev                                                                                                             
000072af  _ZN9DhcpClass10checkLeaseEv                                                                                                   
000071bf  _ZN9DhcpClass10getLocalIpEv                                                                                                   
000071e3  _ZN9DhcpClass12getGatewayIpEv                                                                                                 
00006a89  _ZN9DhcpClass12presend_DHCPEv                                                                                                 
00007219  _ZN9DhcpClass13beginWithDHCPEPh                                                                                               
000071d1  _ZN9DhcpClass13getSubnetMaskEv                                                                                                
00007207  _ZN9DhcpClass14getDnsServerIpEv                                                                                               
000071f5  _ZN9DhcpClass15getDhcpServerIpEv                                                                                              
00006a77  _ZN9DhcpClass16reset_DHCP_leaseEv                                                                                             
00006dd9  _ZN9DhcpClass17parseDHCPResponseERj                                                                                           
00006acd  _ZN9DhcpClass17send_DHCP_MESSAGEEht                                                                                           
00006839  _ZN9DhcpClass18request_DHCP_leaseEv                                                                                           
00006d6b  _ZN9DhcpClass9printByteEPch                                                                                                   
000123d1  _ZN9DhcpClassC1Ev                                                                                                             
000124d9  _ZN9IPAddress11raw_addressEv                                                                                                  
00010793  _ZN9IPAddressC1EPKh                                                                                                           
00011e61  _ZN9IPAddressC1ERKS_                                                                                                          
00010737  _ZN9IPAddressC1Ehhhh                                                                                                          
00010777  _ZN9IPAddressC1Ej                                                                                                             
0001071d  _ZN9IPAddressC1Ev                                                                                                             
00010793  _ZN9IPAddressC2EPKh                                                                                                           
00010737  _ZN9IPAddressC2Ehhhh                                                                                                          
00010777  _ZN9IPAddressC2Ej                                                                                                             
0001071d  _ZN9IPAddressC2Ev                                                                                                             
000122bd  _ZN9IPAddressD0Ev                                                                                                             
000124e7  _ZN9IPAddressD1Ev                                                                                                             
000107cf  _ZN9IPAddressaSEPKh                                                                                                           
0001203f  _ZN9IPAddressaSERKS_                                                                                                          
000107e7  _ZN9IPAddressaSEj                                                                                                             
000122d1  _ZN9IPAddressixEi                                                                                                             
00012131  _ZN9PrintableC1ERKS_                                                                                                          
00012149  _ZN9PrintableC1Ev                                                                                                             
000123e1  _ZN9PrintableC2ERKS_                                                                                                          
000125b3  _ZN9PrintableC2Ev                                                                                                             
000122e5  _ZN9PrintableD0Ev                                                                                                             
000125bf  _ZN9PrintableD1Ev                                                                                                             
000125cb  _ZN9PrintableD2Ev                                                                                                             
000124f5  _ZN9PrintableaSERKS_                                                                                                          
000066ef  _ZN9UIPClient10_availableEP14uip_userdata_t                                                                                   
0000656d  _ZN9UIPClient10remotePortEv                                                                                                   
000067b5  _ZN9UIPClient12_flushBlocksEPh                                                                                                
000065b9  _ZN9UIPClient13_allocateDataEv                                                                                                
0000672f  _ZN9UIPClient13_currentBlockEPh                                                                                               
000063df  _ZN9UIPClient17availableForWriteEv                                                                                            
00006497  _ZN9UIPClient4peekEv                                                                                                          
0000612d  _ZN9UIPClient4readEPhj                                                                                                        
0000645f  _ZN9UIPClient4readEv                                                                                                          
00006245  _ZN9UIPClient4stopEv                                                                                                          
000064e1  _ZN9UIPClient5flushEv                                                                                                         
000063a5  _ZN9UIPClient5writeEPKhj                                                                                                      
00006371  _ZN9UIPClient5writeEh                                                                                                         
00006617  _ZN9UIPClient6_writeEP14uip_userdata_tPKhj                                                                                    
00005f15  _ZN9UIPClient7connectE9IPAddresst                                                                                             
00006073  _ZN9UIPClient7connectEPKct                                                                                                    
20002564  _ZN9UIPClient8all_dataE                                                                                                       
0000650f  _ZN9UIPClient8remoteIPEv                                                                                                      
0000676f  _ZN9UIPClient9_eatBlockEPh                                                                                                    
00006427  _ZN9UIPClient9availableEv                                                                                                     
000062ad  _ZN9UIPClient9connectedEv                                                                                                     
0000658f  _ZN9UIPClientC1EP14uip_userdata_t                                                                                             
00005ecf  _ZN9UIPClientC1Ev                                                                                                             
0000658f  _ZN9UIPClientC2EP14uip_userdata_t                                                                                             
00005ecf  _ZN9UIPClientC2Ev                                                                                                             
000122f9  _ZN9UIPClientD0Ev                                                                                                             
000123f1  _ZN9UIPClientD1Ev                                                                                                             
00006309  _ZN9UIPClientcvbEv                                                                                                            
0000634d  _ZN9UIPClienteqERKS_                                                                                                          
00011ef1  _ZN9UIPClientneERKS_                                                                                                          
0000fb4f  _ZN9UIPServer3endEv                                                                                                           
0000fb2f  _ZN9UIPServer5beginEt                                                                                                         
0000fb05  _ZN9UIPServer5beginEv                                                                                                         
0000fbd7  _ZN9UIPServer5writeEPKhj                                                                                                      
0000fbbf  _ZN9UIPServer5writeEh                                                                                                         
0000fa8f  _ZN9UIPServer6acceptEv                                                                                                        
0000fa25  _ZN9UIPServer9availableEv                                                                                                     
0000f9ed  _ZN9UIPServerC1Et                                                                                                             
0000f9ed  _ZN9UIPServerC2Et                                                                                                             
0001230d  _ZN9UIPServerD0Ev                                                                                                             
00012401  _ZN9UIPServerD1Ev                                                                                                             
0000fbb1  _ZN9UIPServercvbEv                                                                                                            
00012503  _ZNK6String5c_strEv                                                                                                           
00012511  _ZNK6String6lengthEv                                                                                                          
000107fb  _ZNK9IPAddress7printToER5Print                                                                                                
0001251f  _ZNK9IPAddresscvjEv                                                                                                           
000107b3  _ZNK9IPAddresseqEPKh                                                                                                          
00011fd1  _ZNK9IPAddresseqERKS_                                                                                                         
0000b59f  _ZNSt9type_infoD1Ev                                                                                                           
0000b59f  _ZNSt9type_infoD2Ev                                                                                                           
000126b7  _ZSt17__throw_bad_allocv                                                                                                      
00012eec  _ZTI3UDP                                                                                                                      
00012ef4  _ZTI5Print                                                                                                                    
00012efc  _ZTI6Client                                                                                                                   
00012f04  _ZTI6Server                                                                                                                   
00012d64  _ZTI6UIPUDP                                                                                                                   
00012e80  _ZTI9IPAddress                                                                                                                
00012f0c  _ZTI9Printable                                                                                                                
00012d84  _ZTI9UIPClient                                                                                                                
00012da4  _ZTI9UIPServer                                                                                                                
00012e8c  _ZTIN10__cxxabiv117__class_type_infoE                                                                                         
00012e98  _ZTIN10__cxxabiv120__si_class_type_infoE                                                                                      
00012ea4  _ZTIN10__cxxabiv121__vmi_class_type_infoE                                                                                     
00012f14  _ZTISt9type_info                                                                                                              
00012f53  _ZTS3UDP                                                                                                                      
00012f34  _ZTS5Print                                                                                                                    
00012f1c  _ZTS6Client                                                                                                                   
00012f24  _ZTS6Server                                                                                                                   
00012f2c  _ZTS6UIPUDP                                                                                                                   
00012eb0  _ZTS9IPAddress                                                                                                                
00012ebb  _ZTS9Printable                                                                                                                
00012ec6  _ZTS9UIPClient                                                                                                                
00012ed1  _ZTS9UIPServer                                                                                                                
00012d40  _ZTSN10__cxxabiv117__class_type_infoE                                                                                         
00012cf6  _ZTSN10__cxxabiv120__si_class_type_infoE                                                                                      
00012cd0  _ZTSN10__cxxabiv121__vmi_class_type_infoE                                                                                     
00012e70  _ZTSSt9type_info                                                                                                              
00012bd0  _ZTV3UDP                                                                                                                      
00012e30  _ZTV5Print                                                                                                                    
00012c5c  _ZTV6Client                                                                                                                   
00012de0  _ZTV6Server                                                                                                                   
00012958  _ZTV6UIPUDP                                                                                                                   
00012df4  _ZTV9IPAddress                                                                                                                
00012e08  _ZTV9Printable                                                                                                                
00012a78  _ZTV9UIPClient                                                                                                                
00012c9c  _ZTV9UIPServer                                                                                                                
00012e40  _ZTVN10__cxxabiv117__class_type_infoE                                                                                         
00012e50  _ZTVN10__cxxabiv120__si_class_type_infoE                                                                                      
00012e60  _ZTVN10__cxxabiv121__vmi_class_type_infoE                                                                                     
0000d7e9  _ZThn8_N6UIPUDP10remotePortEv                                                                                                 
0000d3d5  _ZThn8_N6UIPUDP11beginPacketE9IPAddresst                                                                                      
0000d4a9  _ZThn8_N6UIPUDP11beginPacketEPKct                                                                                             
0000d5fb  _ZThn8_N6UIPUDP11parsePacketEv                                                                                                
0000d729  _ZThn8_N6UIPUDP4peekEv                                                                                                        
00011e85  _ZThn8_N6UIPUDP4readEPcj                                                                                                      
0000d6d9  _ZThn8_N6UIPUDP4readEPhj                                                                                                      
0000d65b  _ZThn8_N6UIPUDP4readEv                                                                                                        
0000d25f  _ZThn8_N6UIPUDP4stopEv                                                                                                        
0000d1f7  _ZThn8_N6UIPUDP5beginEt                                                                                                       
0000d757  _ZThn8_N6UIPUDP5flushEv                                                                                                       
0000d5a5  _ZThn8_N6UIPUDP5writeEPKhj                                                                                                    
0000d54d  _ZThn8_N6UIPUDP5writeEh                                                                                                       
0000d7b7  _ZThn8_N6UIPUDP8remoteIPEv                                                                                                    
0000d623  _ZThn8_N6UIPUDP9availableEv                                                                                                   
0000d51f  _ZThn8_N6UIPUDP9endPacketEv                                                                                                   
000064cb  _ZThn8_N9UIPClient4peekEv                                                                                                     
0000621b  _ZThn8_N9UIPClient4readEPhj                                                                                                   
00006481  _ZThn8_N9UIPClient4readEv                                                                                                     
00006291  _ZThn8_N9UIPClient4stopEv                                                                                                     
000064fd  _ZThn8_N9UIPClient5flushEv                                                                                                    
000063bb  _ZThn8_N9UIPClient5writeEPKhj                                                                                                 
00006387  _ZThn8_N9UIPClient5writeEh                                                                                                    
0000604b  _ZThn8_N9UIPClient7connectE9IPAddresst                                                                                        
000060f5  _ZThn8_N9UIPClient7connectEPKct                                                                                               
00006449  _ZThn8_N9UIPClient9availableEv                                                                                                
000062e1  _ZThn8_N9UIPClient9connectedEv                                                                                                
0001236d  _ZThn8_N9UIPClientD0Ev                                                                                                        
0001222b  _ZThn8_N9UIPClientD1Ev                                                                                                        
0000632f  _ZThn8_N9UIPClientcvbEv                                                                                                       
0000fb1d  _ZThn8_N9UIPServer5beginEv                                                                                                    
0001237f  _ZThn8_N9UIPServerD0Ev                                                                                                        
00012241  _ZThn8_N9UIPServerD1Ev                                                                                                        
200042a7  _ZZN9UIPClient7connectE9IPAddresstE10first_call                                                                               
200029f0  _ZZN9UIPClient7connectE9IPAddresstE4conn                                                                                      
200042ee  _ZZN9UIPClient7connectE9IPAddresstE7timeout                                                                                   
0001265b  _ZdlPv                                                                                                                        
000126ab  _ZdlPvj                                                                                                                       
2000212c  __CIOBUF_                                                                                                                     
20004248  __STACK_END                                                                                                                   
00001800  __STACK_SIZE                                                                                                                  
20002c48  __STACK_TOP                                                                                                                   
00000010  __SYSMEM_SIZE                                                                                                                 
00013000  __TI_CINIT_Base                                                                                                               
00013018  __TI_CINIT_Limit                                                                                                              
00012fe0  __TI_Handler_Table_Base                                                                                                       
00012fec  __TI_Handler_Table_Limit                                                                                                      
000114b5  __TI_auto_init_nobinit                                                                                                        
200042a8  __TI_cleanup_ptr                                                                                                              
000113ed  __TI_decompress_lzss                                                                                                          
0001252d  __TI_decompress_none                                                                                                          
200042ac  __TI_dtors_ptr                                                                                                                
200042b0  __TI_enable_exit_profile_output                                                                                               
ffffffff  __TI_pprof_out_hndl                                                                                                           
ffffffff  __TI_prof_data_size                                                                                                           
ffffffff  __TI_prof_data_start                                                                                                          
00011c31  __TI_readmsg                                                                                                                  
00000000  __TI_static_base__                                                                                                            
00011af1  __TI_writemsg                                                                                                                 
000125f1  __TI_zero_init                                                                                                                
000126af  __abort_execution                                                                                                             
00011c65  __aeabi_atexit                                                                                                                
000110a3  __aeabi_cdcmpeq                                                                                                               
000110a3  __aeabi_cdcmple                                                                                                               
00011129  __aeabi_cdrcmple                                                                                                              
000117e9  __aeabi_d2iz                                                                                                                  
00011901  __aeabi_d2uiz                                                                                                                 
00010273  __aeabi_dadd                                                                                                                  
00010889  __aeabi_ddiv                                                                                                                  
00010bd9  __aeabi_dmul                                                                                                                  
00010269  __aeabi_dsub                                                                                                                  
00011d63  __aeabi_i2d                                                                                                                   
000112a3  __aeabi_idiv0                                                                                                                 
000112a3  __aeabi_ldiv0                                                                                                                 
00011315  __aeabi_ldivmod                                                                                                               
00012161  __aeabi_lmul                                                                                                                  
00011229  __aeabi_memclr                                                                                                                
00011229  __aeabi_memclr4                                                                                                               
00011229  __aeabi_memclr8                                                                                                               
00010f71  __aeabi_memcpy                                                                                                                
00010f71  __aeabi_memcpy4                                                                                                               
00010f71  __aeabi_memcpy8                                                                                                               
0001122b  __aeabi_memset                                                                                                                
0001122b  __aeabi_memset4                                                                                                               
0001122b  __aeabi_memset8                                                                                                               
00011f75  __aeabi_ui2d                                                                                                                  
000119c9  __aeabi_uidiv                                                                                                                 
000119c9  __aeabi_uidivmod                                                                                                              
0001100d  __aeabi_uldivmod                                                                                                              
ffffffff  __binit__                                                                                                                     
ffffffff  __c_args__                                                                                                                    
000125d9  __cxa_finalize                                                                                                                
000125e5  __cxa_guard_acquire                                                                                                           
00012631  __cxa_guard_release                                                                                                           
00012683  __cxa_ia64_exit                                                                                                               
00012689  __cxa_pure_virtual                                                                                                            
20002a08  __dso_handle                                                                                                                  
000115c9  __isinf                                                                                                                       
00011515  __isnan                                                                                                                       
0000f735  __mktime64                                                                                                                    
UNDEFED   __mpu_init                                                                                                                    
20002a48  __stack                                                                                                                       
20000000  __start___llvm_prf_cnts                                                                                                       
0000d83b  __sti___10_UIPUdp_cpp_b701ef40                                                                                                
0001085b  __sti___13_IPAddress_cpp_0fe1e075                                                                                             
000067f9  __sti___13_UIPClient_cpp_e57569ab                                                                                             
0000fc31  __sti___13_UIPServer_cpp_12169179                                                                                             
0000a031  __sti___15_UIPEthernet_cpp_7bc48b85                                                                                           
00002a9d  __sti___20_Telecom_Ethernet_cpp_client                                                                                        
0000ef4d  __sti___7_Dns_cpp_47d277ed                                                                                                    
000073af  __sti___8_Dhcp_cpp_02ea3d47                                                                                                   
0000c809  __sti___8_main_cpp_2ba82f32                                                                                                   
20000000  __stop___llvm_prf_cnts                                                                                                        
00012411  __time64                                                                                                                      
00011c99  _c_int00_noargs                                                                                                               
000126bc  _ctypes_                                                                                                                      
200042c0  _lock                                                                                                                         
20002a0c  _millis                                                                                                                       
000109bf  _nop                                                                                                                          
20004300  _sys_memory                                                                                                                   
UNDEFED   _system_post_cinit                                                                                                            
000126b3  _system_pre_init                                                                                                              
20004288  _tz                                                                                                                           
200042c4  _unlock                                                                                                                       
000126b7  abort                                                                                                                         
20001e80  adc                                                                                                                           
00010ad9  aligned_alloc                                                                                                                 
00011755  atoi                                                                                                                          
ffffffff  binit                                                                                                                         
200028e0  client                                                                                                                        
2000224c  cloud_config                                                                                                                  
200042b8  cnt_gps_1sec                                                                                                                  
20001ffc  display_tx                                                                                                                    
20002324  display_uart_rx                                                                                                               
20001cf8  dummy_json_string                                                                                                             
20002464  e2p_cloud_config                                                                                                              
200029b4  e2p_config_time                                                                                                               
200028f0  e2p_device_info                                                                                                               
20002900  e2p_location_info                                                                                                             
200029bc  e2p_router_config                                                                                                             
2000026c  ethernet_rx_buff                                                                                                              
20000ca0  ethernet_tx_buff                                                                                                              
000117a1  exit                                                                                                                          
00010dc9  free                                                                                                                          
20002910  freq_updated_data                                                                                                             
20000000  g_pfnRAMVectors                                                                                                               
00000000  g_pfnVectors                                                                                                                  
200028bc  gprs                                                                                                                          
20001900  gprs_rx_buff                                                                                                                  
20002a3a  gprs_rx_isr_handler                                                                                                           
20001afc  gprs_tx_buff                                                                                                                  
20002744  gps                                                                                                                           
200029c4  gps_data                                                                                                                      
200029dc  gps_date_time                                                                                                                 
200029e3  gps_handler_state                                                                                                             
200042b4  gps_interval_start                                                                                                            
000016ed  htons                                                                                                                         
00012421  isdigit                                                                                                                       
0001041f  itoa                                                                                                                          
00010433  ltoa                                                                                                                          
0000bf81  main                                                                                                                          
00012663  malloc                                                                                                                        
2000289d  measurements                                                                                                                  
00010ad9  memalign                                                                                                                      
00011ea9  memcmp                                                                                                                        
00010f71  memcpy                                                                                                                        
00011231  memset                                                                                                                        
0001201b  millis                                                                                                                        
200042f0  millis_cnt                                                                                                                    
00012009  millis_start                                                                                                                  
200029cc  parmbuf                                                                                                                       
200023c4  pc_uart_rx                                                                                                                    
200026f4  pc_uart_tx                                                                                                                    
20002848  ram_data                                                                                                                      
00011ccd  rand                                                                                                                          
200028b9  relay_state                                                                                                                   
200042e4  save_offline_time                                                                                                             
20002920  scheduler                                                                                                                     
20004248  server_response_str                                                                                                           
00011ecd  srand                                                                                                                         
20002a10  startTime                                                                                                                     
00012179  strcmp                                                                                                                        
00012321  strcpy                                                                                                                        
00012335  strlen                                                                                                                        
00011de9  strncmp                                                                                                                       
00011d01  strstr                                                                                                                        
2000287e  time_main                                                                                                                     
200029ea  time_stamp                                                                                                                    
20002a14  u32DelayCounter                                                                                                               
20002a18  uip_acc32                                                                                                                     
00000281  uip_add32                                                                                                                     
20002a1c  uip_appdata                                                                                                                   
0000daed  uip_arp_arpin                                                                                                                 
0000d871  uip_arp_init                                                                                                                  
0000da31  uip_arp_ipin                                                                                                                  
0000dbd9  uip_arp_out                                                                                                                   
0000d8a9  uip_arp_timer                                                                                                                 
200025d4  uip_buf                                                                                                                       
20002a20  uip_conn                                                                                                                      
000003a1  uip_connect                                                                                                                   
200024e4  uip_conns                                                                                                                     
20002a24  uip_draddr                                                                                                                    
200042e8  uip_ethaddr                                                                                                                   
20002a40  uip_flags                                                                                                                     
20002a28  uip_hostaddr                                                                                                                  
00000319  uip_init                                                                                                                      
000095d9  uip_ipchksum                                                                                                                  
20002a3c  uip_len                                                                                                                       
000005d9  uip_listen                                                                                                                    
200029d4  uip_listenports                                                                                                               
20002a2c  uip_netmask                                                                                                                   
00000699  uip_process                                                                                                                   
20002a30  uip_sappdata                                                                                                                  
00001709  uip_send                                                                                                                      
0000026d  uip_setipid                                                                                                                   
20002a3e  uip_slen                                                                                                                      
000095e1  uip_tcpchksum                                                                                                                 
20002a34  uip_udp_conn                                                                                                                  
20002808  uip_udp_conns                                                                                                                 
000004b9  uip_udp_new                                                                                                                   
000095f3  uip_udpchksum                                                                                                                 
00000587  uip_unlisten                                                                                                                  
00005c69  uipclient_appcall                                                                                                             
0000d0dd  uipudp_appcall                                                                                                                
00010513  ultoa                                                                                                                         
200042e0  upload_time                                                                                                                   
000104ff  utoa                                                                                                                          
20002a41  voltage_mode                                                                                                                  


GLOBAL SYMBOLS: SORTED BY Symbol Address 

address   name                                                                                                                          
-------   ----                                                                                                                          
00000000  __TI_static_base__                                                                                                            
00000000  g_pfnVectors                                                                                                                  
00000010  __SYSMEM_SIZE                                                                                                                 
0000026d  uip_setipid                                                                                                                   
00000281  uip_add32                                                                                                                     
00000319  uip_init                                                                                                                      
000003a1  uip_connect                                                                                                                   
000004b9  uip_udp_new                                                                                                                   
00000587  uip_unlisten                                                                                                                  
000005d9  uip_listen                                                                                                                    
00000699  uip_process                                                                                                                   
000016ed  htons                                                                                                                         
00001709  uip_send                                                                                                                      
000017d1  _Z16vETHERNETSPIInitv                                                                                                         
00001800  __STACK_SIZE                                                                                                                  
0000183f  _Z13ethernet_initv                                                                                                            
00001a7d  _Z16ethernet_handlerv                                                                                                         
00001ef9  _Z17ether_tcp_connectv                                                                                                        
00001fc1  _Z10ws_connectv                                                                                                               
00002191  _Z15ether_ping_sendv                                                                                                          
000023a5  _Z10ws_disconnv                                                                                                               
0000251d  _Z22ethernet_pong_receivedPh                                                                                                  
0000255b  _Z16ether_valid_codePc                                                                                                        
000025ab  _Z19flush_ether_rx_buffv                                                                                                      
000025cb  _Z19flush_ether_tx_buffv                                                                                                      
000025f5  _Z14ether_tcp_sendPci                                                                                                         
00002719  _Z22ether_websocket_packetPh                                                                                                  
00002811  _Z18ether_respos_recvdPc                                                                                                      
0000281b  _Z23set_ethernet_connct_stsh                                                                                                  
00002835  _Z23get_ethernet_connct_stsv                                                                                                  
0000283b  _Z21set_ethernet_NWstatush                                                                                                    
00002855  _Z21get_ethernet_NWstatusv                                                                                                    
0000285b  _Z12get_pkt_recvv                                                                                                             
00002861  _Z12set_pkt_recvb                                                                                                             
000028c1  _Z22check_ethernet_messagev                                                                                                   
00002a39  _Z15HTTP_valid_codePc                                                                                                         
00002a89  _Z22resetEther_SubHandlersv                                                                                                   
00002a9d  __sti___20_Telecom_Ethernet_cpp_client                                                                                        
00002b79  _Z16update_date_timev                                                                                                         
00002cc7  _Z15check_date_timePcS_                                                                                                       
00002d9f  _Z18convertToEpochTimePK12time_stamp_t                                                                                        
00002e21  _Z10asUnixTimeiiiiii                                                                                                          
00002e71  _Z12calcTimeDiff12time_stamp_tS_                                                                                              
00002fbb  _Z14getDaysOfMonthcj                                                                                                          
00003075  _Z17check_expire_time12time_stamp_tS_                                                                                         
0000315d  _Z11getDateTimev                                                                                                              
000035b5  _Z7isDT_okv                                                                                                                   
00003665  _Z9time_syncv                                                                                                                 
00003819  _Z16get_present_timeP12time_stamp_t                                                                                           
00003889  _Z10update_rtcPci                                                                                                             
00003a11  _Z14StrToTimeStampPh                                                                                                          
00003b25  _Z13add_date_timeP12time_stamp_tS0_j                                                                                          
00003d6b  _Z12is_leap_yearh                                                                                                             
00003dc1  _Z19check_dateTime_dataP12time_stamp_t                                                                                        
00003e49  _Z12get_locationv                                                                                                             
00004071  _Z11gps_handlerv                                                                                                              
00004529  _Z15gps_pkt_parsingP10gps_info_tPc                                                                                            
00004a91  _Z23updateGpsDateTimeToBuffP15gps_date_time_t                                                                                 
00004c3d  _Z10utcTOlocalP15gps_date_time_t                                                                                              
00004dd9  _Z14get_gps_statusv                                                                                                           
00004de5  _Z14set_gps_status12gps_status_t                                                                                              
00004e01  _Z15flashWriteMR_BRv                                                                                                          
00004e99  _Z19updateFlashCurrAddrv                                                                                                      
000051b5  _Z25flashGetCurrDataWriteAddrc                                                                                                
000051db  _Z22flashGetCurrUploadAddrc                                                                                                   
00005209  _Z16flashGetSerMR_BRv                                                                                                         
00005243  _Z12flashWriteTRv                                                                                                             
00005369  _Z16validate_FL_addrcm                                                                                                        
000053a1  _Z10clear_logsv                                                                                                               
000053c5  _Z12clear_log_idv                                                                                                             
000053e7  _Z11clear_flashv                                                                                                              
00005445  _Z11get_log_cnti                                                                                                              
000054ad  _Z8get_addrim                                                                                                                 
00005501  _Z12get_log_dataimPc                                                                                                          
00005549  _Z27flashEraseFreqUpdDataSectorv                                                                                              
0000556b  _Z27flashClearFreqUpdatedConfigv                                                                                              
0000558f  _Z21flashWriteFreqUpdDataP19freq_updated_data_tm                                                                              
000055d1  _Z27flashWriteFreqUpdatedConfigv                                                                                              
00005667  _Z20flashReadFreqUpdDataP19freq_updated_data_tmi                                                                              
00005695  _Z21readFreqUpdData_flashv                                                                                                    
0000587d  _Z24decrement_unsent_log_cnti                                                                                                 
000058a9  _Z24increment_unsent_log_cnti                                                                                                 
000058c9  _Z16check_unsent_logv                                                                                                         
000058ff  _Z15get_unsent_logsv                                                                                                          
000059bd  _Z23save_OfflineTelecomDatav                                                                                                  
00005a3d  _Z26prepare_OfflineTelecomDatav                                                                                               
00005b43  _Z17save_TELECOM_datav                                                                                                        
00005c69  uipclient_appcall                                                                                                             
00005ecf  _ZN9UIPClientC1Ev                                                                                                             
00005ecf  _ZN9UIPClientC2Ev                                                                                                             
00005f15  _ZN9UIPClient7connectE9IPAddresst                                                                                             
0000604b  _ZThn8_N9UIPClient7connectE9IPAddresst                                                                                        
00006073  _ZN9UIPClient7connectEPKct                                                                                                    
000060f5  _ZThn8_N9UIPClient7connectEPKct                                                                                               
0000612d  _ZN9UIPClient4readEPhj                                                                                                        
0000621b  _ZThn8_N9UIPClient4readEPhj                                                                                                   
00006245  _ZN9UIPClient4stopEv                                                                                                          
00006291  _ZThn8_N9UIPClient4stopEv                                                                                                     
000062ad  _ZN9UIPClient9connectedEv                                                                                                     
000062e1  _ZThn8_N9UIPClient9connectedEv                                                                                                
00006309  _ZN9UIPClientcvbEv                                                                                                            
0000632f  _ZThn8_N9UIPClientcvbEv                                                                                                       
0000634d  _ZN9UIPClienteqERKS_                                                                                                          
00006371  _ZN9UIPClient5writeEh                                                                                                         
00006387  _ZThn8_N9UIPClient5writeEh                                                                                                    
000063a5  _ZN9UIPClient5writeEPKhj                                                                                                      
000063bb  _ZThn8_N9UIPClient5writeEPKhj                                                                                                 
000063df  _ZN9UIPClient17availableForWriteEv                                                                                            
00006427  _ZN9UIPClient9availableEv                                                                                                     
00006449  _ZThn8_N9UIPClient9availableEv                                                                                                
0000645f  _ZN9UIPClient4readEv                                                                                                          
00006481  _ZThn8_N9UIPClient4readEv                                                                                                     
00006497  _ZN9UIPClient4peekEv                                                                                                          
000064cb  _ZThn8_N9UIPClient4peekEv                                                                                                     
000064e1  _ZN9UIPClient5flushEv                                                                                                         
000064fd  _ZThn8_N9UIPClient5flushEv                                                                                                    
0000650f  _ZN9UIPClient8remoteIPEv                                                                                                      
0000656d  _ZN9UIPClient10remotePortEv                                                                                                   
0000658f  _ZN9UIPClientC1EP14uip_userdata_t                                                                                             
0000658f  _ZN9UIPClientC2EP14uip_userdata_t                                                                                             
000065b9  _ZN9UIPClient13_allocateDataEv                                                                                                
00006617  _ZN9UIPClient6_writeEP14uip_userdata_tPKhj                                                                                    
000066ef  _ZN9UIPClient10_availableEP14uip_userdata_t                                                                                   
0000672f  _ZN9UIPClient13_currentBlockEPh                                                                                               
0000676f  _ZN9UIPClient9_eatBlockEPh                                                                                                    
000067b5  _ZN9UIPClient12_flushBlocksEPh                                                                                                
000067f9  __sti___13_UIPClient_cpp_e57569ab                                                                                             
00006839  _ZN9DhcpClass18request_DHCP_leaseEv                                                                                           
00006a77  _ZN9DhcpClass16reset_DHCP_leaseEv                                                                                             
00006a89  _ZN9DhcpClass12presend_DHCPEv                                                                                                 
00006acd  _ZN9DhcpClass17send_DHCP_MESSAGEEht                                                                                           
00006d6b  _ZN9DhcpClass9printByteEPch                                                                                                   
00006dd9  _ZN9DhcpClass17parseDHCPResponseERj                                                                                           
000071bf  _ZN9DhcpClass10getLocalIpEv                                                                                                   
000071d1  _ZN9DhcpClass13getSubnetMaskEv                                                                                                
000071e3  _ZN9DhcpClass12getGatewayIpEv                                                                                                 
000071f5  _ZN9DhcpClass15getDhcpServerIpEv                                                                                              
00007207  _ZN9DhcpClass14getDnsServerIpEv                                                                                               
00007219  _ZN9DhcpClass13beginWithDHCPEPh                                                                                               
000072af  _ZN9DhcpClass10checkLeaseEv                                                                                                   
000073af  __sti___8_Dhcp_cpp_02ea3d47                                                                                                   
00007405  _Z36enc28J60_mempool_block_move_callbackttt                                                                                   
000074ab  _Z15ether_cs_activev                                                                                                          
000074b9  _Z17ether_cs_inactivev                                                                                                        
000074c7  _ZN15Enc28J60Network6readOpEhh                                                                                                
00007513  _ZN15Enc28J60Network7writeOpEhhh                                                                                              
00007549  _ZN15Enc28J60Network10setReadPtrEhtt                                                                                          
000075db  _ZN15Enc28J60Network10setERXRDPTEv                                                                                            
000075ff  _ZN15Enc28J60Network10readBufferEtPh                                                                                          
00007643  _ZN15Enc28J60Network11writeBufferEtPh                                                                                         
00007685  _ZN15Enc28J60Network8readByteEt                                                                                               
000076b7  _ZN15Enc28J60Network9writeByteEth                                                                                             
000076e7  _ZN15Enc28J60Network7setBankEh                                                                                                
00007727  _ZN15Enc28J60Network7readRegEh                                                                                                
00007741  _ZN15Enc28J60Network8writeRegEhh                                                                                              
00007763  _ZN15Enc28J60Network12writeRegPairEht                                                                                         
0000779f  _ZN15Enc28J60Network8phyWriteEht                                                                                              
000077e5  _ZN15Enc28J60Network7phyReadEh                                                                                                
0000783d  _ZN15Enc28J60Network6clkoutEh                                                                                                 
00007853  _ZN15Enc28J60Network15enableBroadcastEb                                                                                       
0000787d  _ZN15Enc28J60Network16disableBroadcastEb                                                                                      
000078ad  _ZN15Enc28J60Network15enableMulticastEv                                                                                       
000078c3  _ZN15Enc28J60Network16disableMulticastEv                                                                                      
000078d7  _ZN15Enc28J60Network11readRegByteEh                                                                                           
000078f1  _ZN15Enc28J60Network12writeRegByteEhh                                                                                         
00007919  _ZN15Enc28J60Network7powerOnEv                                                                                                
0000793f  _ZN15Enc28J60Network8powerOffEv                                                                                               
0000796f  _ZN15Enc28J60Network9geterevidEv                                                                                              
00007975  _ZN15Enc28J60Network9PhyStatusEv                                                                                              
000079c5  _ZN15Enc28J60Network10linkStatusEv                                                                                            
000079dd  _ZN15Enc28J60Network7initSPIEv                                                                                                
00007a09  _ZN15Enc28J60Network4initEPh                                                                                                  
00007b3d  _ZN15Enc28J60Network13receivePacketEv                                                                                         
00007c13  _ZN15Enc28J60Network10freePacketEv                                                                                            
00007c1b  _ZN15Enc28J60Network9blockSizeEh                                                                                              
00007c55  _ZN15Enc28J60Network10sendPacketEh                                                                                            
00007d5d  _ZN15Enc28J60Network10readPacketEhtPht                                                                                        
00007d91  _ZN15Enc28J60Network11writePacketEhtPht                                                                                       
00007dff  _ZN15Enc28J60Network10copyPacketEhthtt                                                                                        
00007e91  _ZN15Enc28J60Network6chksumEthtt                                                                                              
00007f99  _Z12Query_decodePcPKcS_i                                                                                                      
000080b9  _Z12server_queryv                                                                                                             
000082cd  _Z17prepare_JSON_pcktv                                                                                                        
000084fd  _Z23prepare_unsentJSON_pcktv                                                                                                  
0000889d  _Z16websocket_packetPh                                                                                                        
000089a5  _Z17HandleQueryStatesv                                                                                                        
00008a0d  _Z18prepare_server_pktv                                                                                                       
00008a4f  _Z19set_pending_requestb                                                                                                      
00008a63  _Z19get_pending_requestv                                                                                                      
00008a69  _Z10setREQmode13gprs_status_t                                                                                                 
00008a7d  _Z10getREQmodev                                                                                                               
00008a85  _Z16setServerReqType21server_request_type_t                                                                                   
00008a99  _Z16getServerReqTypev                                                                                                         
00008aa1  _Z16setClientMSGType21client_message_type_t                                                                                   
00008ab5  _Z16getClientMSGTypev                                                                                                         
00008add  _Z16decodeMsgPC_Uartv                                                                                                         
00008b03  _Z24preparePC_ResponsePacket5cmd_tPchii                                                                                       
00008c11  _Z8response5cmd_ti                                                                                                            
00009517  _Z17tx_pending_dataPCv                                                                                                        
00009535  _Z16set_system_state10sys_mode_t                                                                                              
00009549  _Z16get_system_statev                                                                                                         
000095d9  uip_ipchksum                                                                                                                  
000095e1  uip_tcpchksum                                                                                                                 
000095f3  uip_udpchksum                                                                                                                 
00009605  _ZN16UIPEthernetClassC1Ev                                                                                                     
00009605  _ZN16UIPEthernetClassC2Ev                                                                                                     
00009611  _ZN16UIPEthernetClass12dhcp_handlerEv                                                                                         
0000969d  _ZN16UIPEthernetClass4initEh                                                                                                  
000096b3  _ZN16UIPEthernetClass5beginEPKh                                                                                               
000096c9  _ZN16UIPEthernetClass5beginEPKh9IPAddress                                                                                     
0000971d  _ZN16UIPEthernetClass5beginEPKh9IPAddressS2_                                                                                  
00009785  _ZN16UIPEthernetClass5beginEPKh9IPAddressS2_S2_                                                                               
000097fb  _ZN16UIPEthernetClass5beginEPKh9IPAddressS2_S2_S2_                                                                            
00009865  _ZN16UIPEthernetClass8maintainEv                                                                                              
00009909  _ZN16UIPEthernetClass10linkStatusEv                                                                                           
00009929  _ZN16UIPEthernetClass14hardwareStatusEv                                                                                       
00009945  _ZN16UIPEthernetClass7localIPEv                                                                                               
00009997  _ZN16UIPEthernetClass10subnetMaskEv                                                                                           
000099e9  _ZN16UIPEthernetClass9gatewayIPEv                                                                                             
00009a3b  _ZN16UIPEthernetClass11dnsServerIPEv                                                                                          
00009a4b  _ZN16UIPEthernetClass7netInitEPKh                                                                                             
00009a9d  _ZN16UIPEthernetClass9configureE9IPAddressS0_S0_S0_                                                                           
00009c91  _ZN16UIPEthernetClass4tickEv                                                                                                  
00009e0f  _ZN16UIPEthernetClass12network_sendEv                                                                                         
00009e81  _ZN16UIPEthernetClass6chksumEtPKht                                                                                            
00009f27  _ZN16UIPEthernetClass8ipchksumEv                                                                                              
00009f69  _ZN16UIPEthernetClass18upper_layer_chksumEh                                                                                   
0000a031  __sti___15_UIPEthernet_cpp_7bc48b85                                                                                           
0000a0b9  GPIODIntHandler                                                                                                               
0000a10d  _Z15vGPIOPortEnablev                                                                                                          
0000a1c1  _Z16vGPIO_UnlockGPIOjh                                                                                                        
0000a20f  _Z12vLEDGPIOInitv                                                                                                             
0000a225  _Z16vPERIPH_GPIOInitv                                                                                                         
0000a26d  _Z18readBCD_SelectorSWv                                                                                                       
0000a3b9  _Z19vInit_InputTestpinsv                                                                                                      
0000a3dd  _Z12vGPIO_Togglejhh                                                                                                           
0000a403  _Z18vInput_PollingReadv                                                                                                       
0000a44d  _Z12vEXTIpinInitv                                                                                                             
0000a479  _Z10ToggleLEDsv                                                                                                               
0000a4a1  _Z19init_ODU_Supplypinsv                                                                                                      
0000a50d  _Z11SetODU_Mode14voltage_mode_t                                                                                               
0000a67d  _Z13controlRelaysv                                                                                                            
0000a8b5  _Z14isSupplyStablev                                                                                                           
0000a945  _Z15vFreqDetectInitv                                                                                                          
0000a971  _Z15vEarthCheckInitv                                                                                                          
0000a991  _Z17FREQDetIntHandlerv                                                                                                        
0000aa01  _Z12vEarthDetectv                                                                                                             
0000aa1f  _Z16ControlODU_Relayh                                                                                                         
0000aa59  _Z19ControlRouter_Relayh                                                                                                      
0000aa8d  _Z28ControlRouterSelection_Relayh                                                                                             
0000aab1  _Z16set_router_state18relay_ctrl_state_t                                                                                      
0000aac5  _Z16get_router_statev                                                                                                         
0000aacd  _Z26set_router_selection_state18relay_ctrl_state_t                                                                            
0000aae7  _Z26get_router_selection_statev                                                                                               
0000ab39  _Z14Reset_Hold_Lowv                                                                                                           
0000ab47  _Z15Reset_Hold_Highv                                                                                                          
0000ab55  _Z6WP_Lowv                                                                                                                    
0000ab63  _Z7WP_Highv                                                                                                                   
0000ab71  _Z17flash_port_assignv                                                                                                        
0000abcf  _Z15init_flash_pinsv                                                                                                          
0000abf1  _Z9flashInitv                                                                                                                 
0000ac2b  _Z15flashClrTR_Logsv                                                                                                          
0000ac75  _Z19flashClrFreqUpdLogsv                                                                                                      
0000acc1  _Z22addDummyFL_TelecomLogsj                                                                                                   
0000ae0b  _Z12flashSwResetv                                                                                                             
0000ae23  _Z13enable_wp_pinv                                                                                                            
0000ae45  _Z4WRENv                                                                                                                      
0000ae57  _Z4WRDIv                                                                                                                      
0000ae6d  _Z4WRCRc                                                                                                                      
0000ae91  _Z7CE_Highv                                                                                                                   
0000ae9f  _Z6CE_Lowv                                                                                                                    
0000aeb1  _Z8SCK_Highv                                                                                                                  
0000aec1  _Z7SCK_Lowv                                                                                                                   
0000aef1  _Z14readContToBuffmjPc                                                                                                        
0000af65  _Z16flashEraseMasterv                                                                                                         
0000afad  _Z11flashCopyMRPcS_                                                                                                           
0000afe9  _Z16flashEraseSectormm                                                                                                        
0000b04d  _Z16flashEraseBackupv                                                                                                         
0000b0a1  _Z18flashPacketProgramPctm                                                                                                    
0000b119  _Z9Wait_Busyv                                                                                                                 
0000b2cf  _Z12Sector_Erasem                                                                                                             
0000b309  _Z23remove_block_protectionv                                                                                                  
0000b32b  _Z4WBPRc                                                                                                                      
0000b3a1  _Z12SetSI_Outputv                                                                                                             
0000b3af  _Z11SetSI_Inputv                                                                                                              
0000b3c3  _Z12SetSO_Outputv                                                                                                             
0000b3d1  _Z11SetSO_Inputv                                                                                                              
0000b3df  _Z6SI_Lowv                                                                                                                    
0000b3ef  _Z7SI_Highv                                                                                                                   
0000b3ff  _Z20Read_Status_Registerv                                                                                                     
0000b423  _Z9Send_Byteh                                                                                                                 
0000b507  _Z8Get_Bytev                                                                                                                  
0000b581  _Z10Chip_Erasev                                                                                                               
0000b59f  _ZNSt9type_infoD1Ev                                                                                                           
0000b59f  _ZNSt9type_infoD2Ev                                                                                                           
0000b5a1  _Z15vPERIPH_E2PInitv                                                                                                          
0000b5af  _Z24e2p_write_voltage_configv                                                                                                 
0000b5ef  _Z23e2p_read_voltage_configv                                                                                                  
0000b679  _Z19e2p_write_cloud_cfgv                                                                                                      
0000b6a9  _Z18e2p_read_cloud_cfgv                                                                                                       
0000b733  _Z7get_urlv                                                                                                                   
0000b737  _Z20e2p_write_device_cfgv                                                                                                     
0000b767  _Z19e2p_read_device_cfgv                                                                                                      
0000b7f1  _Z18e2p_write_locationv                                                                                                       
0000b845  _Z17e2p_read_locationv                                                                                                        
0000b8db  _Z18e2p_write_cfg_timev                                                                                                       
0000b935  _Z17e2p_read_cfg_timev                                                                                                        
0000b9e9  _Z7set_urlPc                                                                                                                  
0000baad  _Z13set_device_idPc                                                                                                           
0000bb4f  _Z13get_device_idv                                                                                                            
0000bbc1  _Z18set_fixed_locationPc                                                                                                      
0000bdd3  _Z18get_fixed_locationv                                                                                                       
0000be05  _Z17cloud_config_datav                                                                                                        
0000bf81  main                                                                                                                          
0000c0fd  _Z15update_ram_datav                                                                                                          
0000c147  _Z12setRAM_Alarm16Alarm_sts_bits_tb                                                                                           
0000c17f  _Z12getRAM_Alarmv                                                                                                             
0000c185  _Z13setRAM_Statushb                                                                                                           
0000c1bd  _Z13getRAM_Statusv                                                                                                            
0000c1c3  _Z17vPERIPH_ClockInitv                                                                                                        
0000c1cd  _Z26vMAIN_InitClockPeripheralsv                                                                                               
0000c23d  _Z14write_defaultsj                                                                                                           
0000c3ad  _Z11init_configv                                                                                                              
0000c479  _Z18getRelay_CtrlStatev                                                                                                       
0000c555  _Z19update_alarm_statusv                                                                                                      
0000c809  __sti___8_main_cpp_2ba82f32                                                                                                   
0000c8bd  _Z12ADC_PortIniti                                                                                                             
0000caa5  _Z9vADC0Initv                                                                                                                 
0000cb01  _Z7readADCh                                                                                                                   
0000cb65  _Z9updateADC14ADC_Channels_th                                                                                                 
0000ce0d  _Z13getODUCurrentv                                                                                                            
0000ce71  _Z21getRouter1_DC_currentv                                                                                                    
0000ced1  _Z13getODUVoltagev                                                                                                            
0000cf2d  _Z17getBatteryVoltagev                                                                                                        
0000cf95  _Z14getSMPSVoltagev                                                                                                           
0000cfe9  _Z19calculate_PN_AC_ADCv                                                                                                      
0000d023  _Z19calculate_NE_AC_ADCv                                                                                                      
0000d05d  _Z10GetAdcDatav                                                                                                               
0000d0dd  uipudp_appcall                                                                                                                
0000d183  _ZN6UIPUDPC1Ev                                                                                                                
0000d183  _ZN6UIPUDPC2Ev                                                                                                                
0000d1b7  _ZN6UIPUDP5beginEt                                                                                                            
0000d1f7  _ZThn8_N6UIPUDP5beginEt                                                                                                       
0000d219  _ZN6UIPUDP4stopEv                                                                                                             
0000d25f  _ZThn8_N6UIPUDP4stopEv                                                                                                        
0000d279  _ZN6UIPUDP11beginPacketE9IPAddresst                                                                                           
0000d3d5  _ZThn8_N6UIPUDP11beginPacketE9IPAddresst                                                                                      
0000d419  _ZN6UIPUDP11beginPacketEPKct                                                                                                  
0000d4a9  _ZThn8_N6UIPUDP11beginPacketEPKct                                                                                             
0000d4d1  _ZN6UIPUDP9endPacketEv                                                                                                        
0000d51f  _ZThn8_N6UIPUDP9endPacketEv                                                                                                   
0000d535  _ZN6UIPUDP5writeEh                                                                                                            
0000d54d  _ZThn8_N6UIPUDP5writeEh                                                                                                       
0000d56b  _ZN6UIPUDP5writeEPKhj                                                                                                         
0000d5a5  _ZThn8_N6UIPUDP5writeEPKhj                                                                                                    
0000d5c9  _ZN6UIPUDP11parsePacketEv                                                                                                     
0000d5fb  _ZThn8_N6UIPUDP11parsePacketEv                                                                                                
0000d611  _ZN6UIPUDP9availableEv                                                                                                        
0000d623  _ZThn8_N6UIPUDP9availableEv                                                                                                   
0000d639  _ZN6UIPUDP4readEv                                                                                                             
0000d65b  _ZThn8_N6UIPUDP4readEv                                                                                                        
0000d671  _ZN6UIPUDP4readEPhj                                                                                                           
0000d6d9  _ZThn8_N6UIPUDP4readEPhj                                                                                                      
0000d6fd  _ZN6UIPUDP4peekEv                                                                                                             
0000d729  _ZThn8_N6UIPUDP4peekEv                                                                                                        
0000d73f  _ZN6UIPUDP5flushEv                                                                                                            
0000d757  _ZThn8_N6UIPUDP5flushEv                                                                                                       
0000d771  _ZN6UIPUDP8remoteIPEv                                                                                                         
0000d7b7  _ZThn8_N6UIPUDP8remoteIPEv                                                                                                    
0000d7cd  _ZN6UIPUDP10remotePortEv                                                                                                      
0000d7e9  _ZThn8_N6UIPUDP10remotePortEv                                                                                                 
0000d803  _ZN6UIPUDP5_sendEP18uip_udp_userdata_t                                                                                        
0000d83b  __sti___10_UIPUdp_cpp_b701ef40                                                                                                
0000d871  uip_arp_init                                                                                                                  
0000d8a9  uip_arp_timer                                                                                                                 
0000da31  uip_arp_ipin                                                                                                                  
0000daed  uip_arp_arpin                                                                                                                 
0000dbd9  uip_arp_out                                                                                                                   
0000de55  _Z14vDEBUGUARTInitv                                                                                                           
0000dea3  _Z12vLTEUARTInitv                                                                                                             
0000deff  _Z16vPERIPH_UARTInitv                                                                                                         
0000df0b  DEBUGUARTIntHandler                                                                                                           
0000e095  LTEUARTIntHandler                                                                                                             
0000e0f9  _Z13vUART_SendChrjh                                                                                                           
0000e117  _Z13vUART_SendStrjPKh                                                                                                         
0000e145  _Z15vUART_SendBytesjPKhj                                                                                                      
0000e189  _Z13vUART_SendIntji                                                                                                           
0000e1b5  _Z11Usendbufferj                                                                                                              
0000e229  _Z23vUART_CheckFrameTimeouti                                                                                                  
0000e29d  _Z13flushRxBufferi                                                                                                            
0000e2d1  _Z13flushTxBufferi                                                                                                            
0000e339  _Z25prepare_graphical_tx_buffjPch                                                                                             
0000e411  _ZN5Print11printNumberEmh                                                                                                     
0000e485  _ZN5Print10printFloatEdh                                                                                                      
0000e611  _ZN5Print5writeEPKhj                                                                                                          
0000e655  _ZN5Print5printEPK19__FlashStringHelper                                                                                       
0000e675  _ZN5Print5printERK6String                                                                                                     
0000e695  _ZN5Print5printEPKc                                                                                                           
0000e6a5  _ZN5Print5printEc                                                                                                             
0000e6bd  _ZN5Print5printEhi                                                                                                            
0000e6d5  _ZN5Print5printEii                                                                                                            
0000e6e9  _ZN5Print5printEji                                                                                                            
0000e70d  _ZN5Print5printEli                                                                                                            
0000e78d  _ZN5Print5printEmi                                                                                                            
0000e7c1  _ZN5Print5printEdi                                                                                                            
0000e7f1  _ZN5Print5printERK9Printable                                                                                                  
0000e805  _ZN5Print7printlnEPK19__FlashStringHelper                                                                                     
0000e827  _ZN5Print7printlnERK6String                                                                                                   
0000e847  _ZN5Print7printlnEPKc                                                                                                         
0000e867  _ZN5Print7printlnEc                                                                                                           
0000e88b  _ZN5Print7printlnEhi                                                                                                          
0000e8b9  _ZN5Print7printlnEii                                                                                                          
0000e8e3  _ZN5Print7printlnEji                                                                                                          
0000e90d  _ZN5Print7printlnEli                                                                                                          
0000e937  _ZN5Print7printlnEmi                                                                                                          
0000e961  _ZN5Print7printlnEdi                                                                                                          
0000e997  _ZN5Print7printlnERK9Printable                                                                                                
0000e9b7  _ZN5Print7printlnEv                                                                                                           
0000e9c9  _ZN9DNSClient5beginERK9IPAddress                                                                                              
0000e9df  _ZN9DNSClient9inet_atonEPKcR9IPAddress                                                                                        
0000eaa3  _ZN9DNSClient13getHostByNameEPKcR9IPAddress                                                                                   
0000eb71  _ZN9DNSClient12BuildRequestEPKc                                                                                               
0000ec99  _ZN9DNSClient15ProcessResponseEtR9IPAddress                                                                                   
0000ef4d  __sti___7_Dns_cpp_47d277ed                                                                                                    
0000ef85  _Z11getChecksumPhc                                                                                                            
0000efdb  _Z10my_sprintfPciz                                                                                                            
0000f15f  _Z8intToStriPci                                                                                                               
0000f1cd  _Z7reversePci                                                                                                                 
0000f21d  _Z13delete_SubStrPcS_c                                                                                                        
0000f2e1  _Z17generateRandomKeyiPc                                                                                                      
0000f353  _Z25count_doubleSquareBracketPcj                                                                                              
0000f3a7  _Z11count_commaPct                                                                                                            
0000f3ef  _Z9my_strstrPKcS0_i                                                                                                           
0000f445  _ZN10MemoryPool4initEv                                                                                                        
0000f469  _ZN10MemoryPool10allocBlockEt                                                                                                 
0000f631  _ZN10MemoryPool9freeBlockEh                                                                                                   
0000f699  _ZN10MemoryPool11resizeBlockEht                                                                                               
0000f6d1  _ZN10MemoryPool11resizeBlockEhtt                                                                                              
0000f709  _ZN10MemoryPool9blockSizeEh                                                                                                   
0000f735  __mktime64                                                                                                                    
0000f9ed  _ZN9UIPServerC1Et                                                                                                             
0000f9ed  _ZN9UIPServerC2Et                                                                                                             
0000fa25  _ZN9UIPServer9availableEv                                                                                                     
0000fa8f  _ZN9UIPServer6acceptEv                                                                                                        
0000fb05  _ZN9UIPServer5beginEv                                                                                                         
0000fb1d  _ZThn8_N9UIPServer5beginEv                                                                                                    
0000fb2f  _ZN9UIPServer5beginEt                                                                                                         
0000fb4f  _ZN9UIPServer3endEv                                                                                                           
0000fbb1  _ZN9UIPServercvbEv                                                                                                            
0000fbbf  _ZN9UIPServer5writeEh                                                                                                         
0000fbd7  _ZN9UIPServer5writeEPKhj                                                                                                      
0000fc31  __sti___13_UIPServer_cpp_12169179                                                                                             
0000fc7d  _Z15generateMaskKeyPh                                                                                                         
0000fcbd  _Z11get_rx_dataPc                                                                                                             
0000fcef  _Z12check_stringPKcPcPi                                                                                                       
0000fddf  _Z18check_string_nobufPKc                                                                                                     
0000fdf9  _Z15set_upload_data13upload_data_t                                                                                            
0000fe0d  _Z15get_upload_datav                                                                                                          
0000fe15  _Z15set_webconn_stsh                                                                                                          
0000fe29  _Z15get_webconn_stsv                                                                                                          
0000fe2f  _Z19set_gprs_connct_stsh                                                                                                      
0000fe43  _Z19get_gprs_connct_stsv                                                                                                      
0000fe49  _Z11setNWstatus13gprs_status_t                                                                                                
0000fe5d  _Z12getNW_statusv                                                                                                             
0000fe65  _Z15setServerStatus13gprs_status_t                                                                                            
0000fe79  _Z15getServerStatusv                                                                                                          
0000fea1  _Z11vRTCI2CInitv                                                                                                              
0000feff  _Z10I2CReceivev                                                                                                               
0000ff49  _Z8Read_RTCPhh                                                                                                                
00010011  _Z9Write_RTCPhh                                                                                                               
000100b1  _Z19vPERIPH_SystickInitv                                                                                                      
000100cd  SysTickIntHandler                                                                                                             
000101fd  _Z13vMAIN_DelayMSj                                                                                                            
0001021b  _Z9my_millisv                                                                                                                 
00010269  __aeabi_dsub                                                                                                                  
00010273  __aeabi_dadd                                                                                                                  
0001041f  itoa                                                                                                                          
00010433  ltoa                                                                                                                          
000104ff  utoa                                                                                                                          
00010513  ultoa                                                                                                                         
000105b1  GPIOPadConfigSet                                                                                                              
0001071d  _ZN9IPAddressC1Ev                                                                                                             
0001071d  _ZN9IPAddressC2Ev                                                                                                             
00010737  _ZN9IPAddressC1Ehhhh                                                                                                          
00010737  _ZN9IPAddressC2Ehhhh                                                                                                          
00010777  _ZN9IPAddressC1Ej                                                                                                             
00010777  _ZN9IPAddressC2Ej                                                                                                             
00010793  _ZN9IPAddressC1EPKh                                                                                                           
00010793  _ZN9IPAddressC2EPKh                                                                                                           
000107b3  _ZNK9IPAddresseqEPKh                                                                                                          
000107cf  _ZN9IPAddressaSEPKh                                                                                                           
000107e7  _ZN9IPAddressaSEj                                                                                                             
000107fb  _ZNK9IPAddress7printToER5Print                                                                                                
0001085b  __sti___13_IPAddress_cpp_0fe1e075                                                                                             
00010889  __aeabi_ddiv                                                                                                                  
000109bf  _nop                                                                                                                          
000109c1  SysCtlClockGet                                                                                                                
00010ad9  aligned_alloc                                                                                                                 
00010ad9  memalign                                                                                                                      
00010bd9  __aeabi_dmul                                                                                                                  
00010cd5  SysCtlClockSet                                                                                                                
00010dc9  free                                                                                                                          
00010ead  EEPROMProgram                                                                                                                 
00010f71  __aeabi_memcpy                                                                                                                
00010f71  __aeabi_memcpy4                                                                                                               
00010f71  __aeabi_memcpy8                                                                                                               
00010f71  memcpy                                                                                                                        
0001100d  __aeabi_uldivmod                                                                                                              
000110a3  __aeabi_cdcmpeq                                                                                                               
000110a3  __aeabi_cdcmple                                                                                                               
00011129  __aeabi_cdrcmple                                                                                                              
000111af  ADCSequenceStepConfigure                                                                                                      
00011229  __aeabi_memclr                                                                                                                
00011229  __aeabi_memclr4                                                                                                               
00011229  __aeabi_memclr8                                                                                                               
0001122b  __aeabi_memset                                                                                                                
0001122b  __aeabi_memset4                                                                                                               
0001122b  __aeabi_memset8                                                                                                               
00011231  memset                                                                                                                        
000112a3  __aeabi_idiv0                                                                                                                 
000112a3  __aeabi_ldiv0                                                                                                                 
00011315  __aeabi_ldivmod                                                                                                               
00011385  IntEnable                                                                                                                     
000113ed  __TI_decompress_lzss                                                                                                          
00011455  HOSTtime64                                                                                                                    
000114b5  __TI_auto_init_nobinit                                                                                                        
00011515  __isnan                                                                                                                       
00011571  GPIOIntTypeSet                                                                                                                
000115c9  __isinf                                                                                                                       
0001161d  SysCtlPeripheralReset                                                                                                         
0001166d  ADCSequenceConfigure                                                                                                          
000116bd  GPIOPinConfigure                                                                                                              
00011709  I2CMasterInitExpClk                                                                                                           
00011755  atoi                                                                                                                          
000117a1  exit                                                                                                                          
000117e9  __aeabi_d2iz                                                                                                                  
00011831  UARTConfigSetExpClk                                                                                                           
000118bd  _Z25__add_destruction_to_listPP20a_needed_destructionPFYvPvES2_S2_                                                            
00011901  __aeabi_d2uiz                                                                                                                 
00011945  _Z23__finalize_destructionsPP20a_needed_destructionPv                                                                         
00011989  EEPROMInit                                                                                                                    
000119c9  __aeabi_uidiv                                                                                                                 
000119c9  __aeabi_uidivmod                                                                                                              
00011a09  SSIConfigSetExpClk                                                                                                            
00011a81  EEPROMRead                                                                                                                    
00011ab9  SysCtlPeripheralReady                                                                                                         
00011af1  __TI_writemsg                                                                                                                 
00011b1f  C$$IO$$                                                                                                                       
00011b29  _Z8sleep_usi                                                                                                                  
00011b61  IntRegister                                                                                                                   
00011b95  SysCtlPeripheralDisable                                                                                                       
00011bc9  SysCtlPeripheralEnable                                                                                                        
00011c31  __TI_readmsg                                                                                                                  
00011c65  __aeabi_atexit                                                                                                                
00011c99  _c_int00_noargs                                                                                                               
00011ccd  rand                                                                                                                          
00011d01  strstr                                                                                                                        
00011d35  ADCIntStatus                                                                                                                  
00011d63  __aeabi_i2d                                                                                                                   
00011d91  GPIODirModeSet                                                                                                                
00011dbd  _Z13SPI_transrecvjh                                                                                                           
00011de9  strncmp                                                                                                                       
00011e3d  _ZN5Print5writeEPKc                                                                                                           
00011e61  _ZN9IPAddressC1ERKS_                                                                                                          
00011e85  _ZThn8_N6UIPUDP4readEPcj                                                                                                      
00011ea9  memcmp                                                                                                                        
00011ecd  srand                                                                                                                         
00011ef1  _ZN9UIPClientneERKS_                                                                                                          
00011f15  UARTDisable                                                                                                                   
00011f35  _Z14__libcpp_isinfIdEbT_                                                                                                      
00011f55  _Z14__libcpp_isnanIdEbT_                                                                                                      
00011f75  __aeabi_ui2d                                                                                                                  
00011f95  ADCSequenceDataGet                                                                                                            
00011fb5  _ZN5PrintC1Ev                                                                                                                 
00011fd1  _ZNK9IPAddresseqERKS_                                                                                                         
00012009  millis_start                                                                                                                  
00012011  SysTick_Handler                                                                                                               
0001201b  millis                                                                                                                        
00012025  GPIOPinTypeGPIOOutput                                                                                                         
0001203f  _ZN9IPAddressaSERKS_                                                                                                          
00012059  ADCProcessorTrigger                                                                                                           
00012071  GPIOIntRegister                                                                                                               
00012089  _Z5isinfIdENSt3__29enable_ifIXaasr3std3__213is_arithmeticIT_EE5valuesr3std3__214numeric_limitsIS2_EE12has_infinityEbE4typeES2_
000120a1  _Z5isnanIdENSt3__29enable_ifIXsr3std3__217is_floating_pointIT_EE5valueEbE4typeES2_                                            
000120b9  _ZN3UDPC1Ev                                                                                                                   
000120d1  _ZN5Print5writeEPKcj                                                                                                          
000120e9  _ZN6ClientC1Ev                                                                                                                
00012101  _ZN6ServerC1Ev                                                                                                                
00012119  _ZN6UIPUDP4readEPcj                                                                                                           
00012131  _ZN9PrintableC1ERKS_                                                                                                          
00012149  _ZN9PrintableC1Ev                                                                                                             
00012161  __aeabi_lmul                                                                                                                  
00012179  strcmp                                                                                                                        
00012191  GPIOPinTypeADC                                                                                                                
000121a7  GPIOPinTypeGPIOInput                                                                                                          
000121bd  GPIOPinTypeI2C                                                                                                                
000121d3  GPIOPinTypeI2CSCL                                                                                                             
000121e9  GPIOPinTypeSSI                                                                                                                
000121ff  GPIOPinTypeUART                                                                                                               
00012215  _ZN9DNSClientC1Ev                                                                                                             
0001222b  _ZThn8_N9UIPClientD1Ev                                                                                                        
00012241  _ZThn8_N9UIPServerD1Ev                                                                                                        
00012259  SysTickEnable                                                                                                                 
0001226d  SysTickIntEnable                                                                                                              
00012281  UARTEnable                                                                                                                    
00012295  _ZN6ClientD0Ev                                                                                                                
000122a9  _ZN6ServerD0Ev                                                                                                                
000122bd  _ZN9IPAddressD0Ev                                                                                                             
000122d1  _ZN9IPAddressixEi                                                                                                             
000122e5  _ZN9PrintableD0Ev                                                                                                             
000122f9  _ZN9UIPClientD0Ev                                                                                                             
0001230d  _ZN9UIPServerD0Ev                                                                                                             
00012321  strcpy                                                                                                                        
00012335  strlen                                                                                                                        
00012349  SSIDataGetNonBlocking                                                                                                         
0001235b  _Z3absl                                                                                                                       
0001236d  _ZThn8_N9UIPClientD0Ev                                                                                                        
0001237f  _ZThn8_N9UIPServerD0Ev                                                                                                        
00012391  IntMasterEnable                                                                                                               
000123a1  SysCtlReset                                                                                                                   
000123b1  SysTickPeriodSet                                                                                                              
000123d1  _ZN9DhcpClassC1Ev                                                                                                             
000123e1  _ZN9PrintableC2ERKS_                                                                                                          
000123f1  _ZN9UIPClientD1Ev                                                                                                             
00012401  _ZN9UIPServerD1Ev                                                                                                             
00012411  __time64                                                                                                                      
00012421  isdigit                                                                                                                       
00012431  ADCSequenceEnable                                                                                                             
0001243f  GPIOIntStatus                                                                                                                 
0001244d  I2CRxFIFOFlush                                                                                                                
0001245b  I2CTxFIFOFlush                                                                                                                
00012469  SSIDataPutNonBlocking                                                                                                         
00012477  UARTCharGetNonBlocking                                                                                                        
00012485  UARTCharPutNonBlocking                                                                                                        
00012493  UARTCharsAvail                                                                                                                
000124a1  _ZN10__cxxabiv117__class_type_infoD0Ev                                                                                        
000124af  _ZN10__cxxabiv120__si_class_type_infoD0Ev                                                                                     
000124bd  _ZN10__cxxabiv121__vmi_class_type_infoD0Ev                                                                                    
000124cb  _ZN9DNSClientD1Ev                                                                                                             
000124d9  _ZN9IPAddress11raw_addressEv                                                                                                  
000124e7  _ZN9IPAddressD1Ev                                                                                                             
000124f5  _ZN9PrintableaSERKS_                                                                                                          
00012503  _ZNK6String5c_strEv                                                                                                           
00012511  _ZNK6String6lengthEv                                                                                                          
0001251f  _ZNK9IPAddresscvjEv                                                                                                           
0001252d  __TI_decompress_none                                                                                                          
0001253b  CPUcpsie                                                                                                                      
00012547  GPIOIntEnable                                                                                                                 
00012553  _ZN3UDPC2Ev                                                                                                                   
0001255f  _ZN5PrintC2Ev                                                                                                                 
0001256b  _ZN6ClientC2Ev                                                                                                                
00012577  _ZN6ClientD1Ev                                                                                                                
00012583  _ZN6ClientD2Ev                                                                                                                
0001258f  _ZN6ServerC2Ev                                                                                                                
0001259b  _ZN6ServerD1Ev                                                                                                                
000125a7  _ZN6ServerD2Ev                                                                                                                
000125b3  _ZN9PrintableC2Ev                                                                                                             
000125bf  _ZN9PrintableD1Ev                                                                                                             
000125cb  _ZN9PrintableD2Ev                                                                                                             
000125d9  __cxa_finalize                                                                                                                
000125e5  __cxa_guard_acquire                                                                                                           
000125f1  __TI_zero_init                                                                                                                
000125fd  ResetISR                                                                                                                      
00012609  ADCIntClear                                                                                                                   
00012613  I2CMasterEnable                                                                                                               
0001261d  SSIEnable                                                                                                                     
00012627  UARTIntStatus                                                                                                                 
00012631  __cxa_guard_release                                                                                                           
0001263b  I2CMasterBusy                                                                                                                 
00012643  I2CMasterSlaveAddrSet                                                                                                         
0001264b  UARTBusy                                                                                                                      
00012653  UARTIntEnable                                                                                                                 
0001265b  _ZdlPv                                                                                                                        
00012663  malloc                                                                                                                        
0001266b  GPIOIntClear                                                                                                                  
00012671  GPIOPinRead                                                                                                                   
00012677  GPIOPinWrite                                                                                                                  
0001267d  SysCtlDelay                                                                                                                   
00012683  __cxa_ia64_exit                                                                                                               
00012689  __cxa_pure_virtual                                                                                                            
0001268f  I2CMasterControl                                                                                                              
00012693  I2CMasterDataGet                                                                                                              
00012697  I2CMasterDataPut                                                                                                              
0001269b  UARTIntClear                                                                                                                  
0001269f  _ZN10__cxxabiv117__class_type_infoD1Ev                                                                                        
0001269f  _ZN10__cxxabiv117__class_type_infoD2Ev                                                                                        
000126a3  _ZN10__cxxabiv120__si_class_type_infoD1Ev                                                                                     
000126a3  _ZN10__cxxabiv120__si_class_type_infoD2Ev                                                                                     
000126a7  _ZN10__cxxabiv121__vmi_class_type_infoD1Ev                                                                                    
000126a7  _ZN10__cxxabiv121__vmi_class_type_infoD2Ev                                                                                    
000126ab  _ZdlPvj                                                                                                                       
000126af  __abort_execution                                                                                                             
000126b3  _system_pre_init                                                                                                              
000126b7  C$$EXIT                                                                                                                       
000126b7  _ZSt17__throw_bad_allocv                                                                                                      
000126b7  abort                                                                                                                         
000126bc  _ctypes_                                                                                                                      
00012958  _ZTV6UIPUDP                                                                                                                   
00012a78  _ZTV9UIPClient                                                                                                                
00012bd0  _ZTV3UDP                                                                                                                      
00012c5c  _ZTV6Client                                                                                                                   
00012c9c  _ZTV9UIPServer                                                                                                                
00012cd0  _ZTSN10__cxxabiv121__vmi_class_type_infoE                                                                                     
00012cf6  _ZTSN10__cxxabiv120__si_class_type_infoE                                                                                      
00012d40  _ZTSN10__cxxabiv117__class_type_infoE                                                                                         
00012d64  _ZTI6UIPUDP                                                                                                                   
00012d84  _ZTI9UIPClient                                                                                                                
00012da4  _ZTI9UIPServer                                                                                                                
00012de0  _ZTV6Server                                                                                                                   
00012df4  _ZTV9IPAddress                                                                                                                
00012e08  _ZTV9Printable                                                                                                                
00012e30  _ZTV5Print                                                                                                                    
00012e40  _ZTVN10__cxxabiv117__class_type_infoE                                                                                         
00012e50  _ZTVN10__cxxabiv120__si_class_type_infoE                                                                                      
00012e60  _ZTVN10__cxxabiv121__vmi_class_type_infoE                                                                                     
00012e70  _ZTSSt9type_info                                                                                                              
00012e80  _ZTI9IPAddress                                                                                                                
00012e8c  _ZTIN10__cxxabiv117__class_type_infoE                                                                                         
00012e98  _ZTIN10__cxxabiv120__si_class_type_infoE                                                                                      
00012ea4  _ZTIN10__cxxabiv121__vmi_class_type_infoE                                                                                     
00012eb0  _ZTS9IPAddress                                                                                                                
00012ebb  _ZTS9Printable                                                                                                                
00012ec6  _ZTS9UIPClient                                                                                                                
00012ed1  _ZTS9UIPServer                                                                                                                
00012eec  _ZTI3UDP                                                                                                                      
00012ef4  _ZTI5Print                                                                                                                    
00012efc  _ZTI6Client                                                                                                                   
00012f04  _ZTI6Server                                                                                                                   
00012f0c  _ZTI9Printable                                                                                                                
00012f14  _ZTISt9type_info                                                                                                              
00012f1c  _ZTS6Client                                                                                                                   
00012f24  _ZTS6Server                                                                                                                   
00012f2c  _ZTS6UIPUDP                                                                                                                   
00012f34  _ZTS5Print                                                                                                                    
00012f53  _ZTS3UDP                                                                                                                      
00012f64  SHT$$INIT_ARRAY$$Base                                                                                                         
00012f88  SHT$$INIT_ARRAY$$Limit                                                                                                        
00012fe0  __TI_Handler_Table_Base                                                                                                       
00012fec  __TI_Handler_Table_Limit                                                                                                      
00013000  __TI_CINIT_Base                                                                                                               
00013018  __TI_CINIT_Limit                                                                                                              
20000000  __start___llvm_prf_cnts                                                                                                       
20000000  __stop___llvm_prf_cnts                                                                                                        
20000000  g_pfnRAMVectors                                                                                                               
2000026c  ethernet_rx_buff                                                                                                              
20000ca0  ethernet_tx_buff                                                                                                              
200016d0  _ZN10MemoryPool6blocksE                                                                                                       
20001900  gprs_rx_buff                                                                                                                  
20001afc  gprs_tx_buff                                                                                                                  
20001cf8  dummy_json_string                                                                                                             
20001e80  adc                                                                                                                           
20001ffc  display_tx                                                                                                                    
2000212c  __CIOBUF_                                                                                                                     
2000224c  cloud_config                                                                                                                  
20002322  BCD_MODE                                                                                                                      
20002324  display_uart_rx                                                                                                               
200023c4  pc_uart_rx                                                                                                                    
20002464  e2p_cloud_config                                                                                                              
200024e4  uip_conns                                                                                                                     
20002564  _ZN9UIPClient8all_dataE                                                                                                       
200025d4  uip_buf                                                                                                                       
200026f4  pc_uart_tx                                                                                                                    
20002744  gps                                                                                                                           
20002787  FLR_log_data                                                                                                                  
200027c7  FL_log_data                                                                                                                   
20002807  UIPEthernet                                                                                                                   
20002808  uip_udp_conns                                                                                                                 
20002848  ram_data                                                                                                                      
2000287e  time_main                                                                                                                     
2000289d  measurements                                                                                                                  
200028b9  relay_state                                                                                                                   
200028bc  gprs                                                                                                                          
200028d0  Eclient                                                                                                                       
200028e0  client                                                                                                                        
200028f0  e2p_device_info                                                                                                               
20002900  e2p_location_info                                                                                                             
20002910  freq_updated_data                                                                                                             
20002920  scheduler                                                                                                                     
2000293a  Alarms                                                                                                                        
20002946  Telecom_Ethernet                                                                                                              
20002951  EXTI_cnt                                                                                                                      
20002953  System_mode                                                                                                                   
200029a4  _ZN16UIPEthernetClass17_dnsServerAddressE                                                                                     
200029b4  e2p_config_time                                                                                                               
200029bc  e2p_router_config                                                                                                             
200029c4  gps_data                                                                                                                      
200029cc  parmbuf                                                                                                                       
200029d4  uip_listenports                                                                                                               
200029dc  gps_date_time                                                                                                                 
200029e3  gps_handler_state                                                                                                             
200029e4  _ZN15Enc28J60Network10receivePktE                                                                                             
200029ea  time_stamp                                                                                                                    
200029f0  _ZZN9UIPClient7connectE9IPAddresstE4conn                                                                                      
20002a00  Telecom_server_query                                                                                                          
20002a04  _ZN16UIPEthernetClass14periodic_timerE                                                                                        
20002a08  __dso_handle                                                                                                                  
20002a0c  _millis                                                                                                                       
20002a10  startTime                                                                                                                     
20002a14  u32DelayCounter                                                                                                               
20002a18  uip_acc32                                                                                                                     
20002a1c  uip_appdata                                                                                                                   
20002a20  uip_conn                                                                                                                      
20002a24  uip_draddr                                                                                                                    
20002a28  uip_hostaddr                                                                                                                  
20002a2c  uip_netmask                                                                                                                   
20002a30  uip_sappdata                                                                                                                  
20002a34  uip_udp_conn                                                                                                                  
20002a38  _ZN15Enc28J60Network13nextPacketPtrE                                                                                          
20002a3a  gprs_rx_isr_handler                                                                                                           
20002a3c  uip_len                                                                                                                       
20002a3e  uip_slen                                                                                                                      
20002a40  uip_flags                                                                                                                     
20002a41  voltage_mode                                                                                                                  
20002a48  __stack                                                                                                                       
20002c48  __STACK_TOP                                                                                                                   
20004248  __STACK_END                                                                                                                   
20004248  server_response_str                                                                                                           
20004263  ENC28J60ControlCS                                                                                                             
20004264  _ZN15Enc28J60Network4bankE                                                                                                    
20004265  _ZN15Enc28J60Network6erevidE                                                                                                  
20004266  _ZN15Enc28J60Network17broadcast_enabledE                                                                                      
20004268  PN_ADC_RAW_MAX                                                                                                                
20004270  NE_ADC_RAW_MAX                                                                                                                
20004288  _tz                                                                                                                           
200042a7  _ZZN9UIPClient7connectE9IPAddresstE10first_call                                                                               
200042a8  __TI_cleanup_ptr                                                                                                              
200042ac  __TI_dtors_ptr                                                                                                                
200042b0  __TI_enable_exit_profile_output                                                                                               
200042b4  gps_interval_start                                                                                                            
200042b8  cnt_gps_1sec                                                                                                                  
200042c0  _lock                                                                                                                         
200042c4  _unlock                                                                                                                       
200042d0  _ZN16UIPEthernetClass9in_packetE                                                                                              
200042d1  _ZN16UIPEthernetClass10uip_packetE                                                                                            
200042d2  _ZN16UIPEthernetClass10uip_hdrlenE                                                                                            
200042d3  _ZN16UIPEthernetClass11packetstateE                                                                                           
200042d4  _ZN16UIPEthernetClass5_dhcpE                                                                                                  
200042e0  upload_time                                                                                                                   
200042e4  save_offline_time                                                                                                             
200042e8  uip_ethaddr                                                                                                                   
200042ee  _ZZN9UIPClient7connectE9IPAddresstE7timeout                                                                                   
200042f0  millis_cnt                                                                                                                    
20004300  _sys_memory                                                                                                                   
ffffffff  __TI_pprof_out_hndl                                                                                                           
ffffffff  __TI_prof_data_size                                                                                                           
ffffffff  __TI_prof_data_start                                                                                                          
ffffffff  __binit__                                                                                                                     
ffffffff  __c_args__                                                                                                                    
ffffffff  binit                                                                                                                         
UNDEFED   __mpu_init                                                                                                                    
UNDEFED   _system_post_cinit                                                                                                            

[851 symbols]
