******************************************************************************
                  TI ARM Linker PC v20.2.6                     
******************************************************************************
>> Linked Tue Aug  6 17:28:54 2024

OUTPUT FILE NAME:   <Telecom_IoT_v2_00.out>
ENTRY POINT SYMBOL: "_c_int00_noargs"  address: 0000d291


MEMORY CONFIGURATION

         name            origin    length      used     unused   attr    fill
----------------------  --------  ---------  --------  --------  ----  --------
  FLASH                 00000000   00020000  0000df2a  000120d6  R  X
  SRAM                  20000000   00008000  0000291f  000056e1  RW X


SEGMENT ALLOCATION MAP

run origin  load origin   length   init length attrs members
----------  ----------- ---------- ----------- ----- -------
00000000    00000000    0000df30   0000df30    r-x
  00000000    00000000    0000026c   0000026c    r-- .intvecs
  0000026c    0000026c    0000d552   0000d552    r-x .text
  0000d7c0    0000d7c0    000006d4   000006d4    r-- .const
  0000de98    0000de98    00000098   00000098    r-- .cinit
20000000    20000000    00002928   00000000    rw-
  20000000    20000000    0000026c   00000000    rw- .vtable
  20000270    20000270    00001800   00000000    rw- .stack
  20001a70    20001a70    00000de3   00000000    rw- .bss
  20002858    20002858    000000d0   00000000    rw- .data


SECTION ALLOCATION MAP

 output                                  attributes/
section   page    origin      length       input sections
--------  ----  ----------  ----------   ----------------
.intvecs   0    00000000    0000026c     
                  00000000    0000026c     tm4c1233e6pz_startup_ccs.obj (.intvecs)

.text      0    0000026c    0000d552     
                  0000026c    000037fc     gprs.obj (.text)
                  00003a68    00001150     Clock.obj (.text)
                  00004bb8    00001088     GLCD.obj (.text)
                  00005c40    00000cc8     Telecom_server_query.obj (.text)
                  00006908    00000af0     IO_cntrl.obj (.text)
                  000073f8    00000ae0     ADC_Core.obj (.text)
                  00007ed8    00000a30     E2P.obj (.text)
                  00008908    00000a18     main.obj (.text)
                  00009320    000009f0     flashCore.obj (.text)
                  00009d10    0000097c     PC_Cmds.obj (.text)
                  0000a68c    00000738     flash_logger.obj (.text)
                  0000adc4    000005f0     UartCore.obj (.text)
                  0000b3b4    00000510     _common.obj (.text)
                  0000b8c4    000002b8     rtsv7M4_T_le_v4SPD16_eabi.lib : mktime64.c.obj (.text:__mktime64)
                  0000bb7c    00000210     DS3231.obj (.text)
                  0000bd8c    000001e4     SysTick_Timer.obj (.text)
                  0000bf70    000001b6     rtsv7M4_T_le_v4SPD16_eabi.lib : fd_add_t2.asm.obj (.text)
                  0000c126    00000002                                   : _lock.c.obj (.text:_nop)
                  0000c128    0000016c     driverlib.lib : gpio.obj (.text:GPIOPadConfigSet)
                  0000c294    00000136     rtsv7M4_T_le_v4SPD16_eabi.lib : fd_div_t2.asm.obj (.text)
                  0000c3ca    00000002                                   : div0.asm.obj (.text)
                  0000c3cc    00000118     driverlib.lib : sysctl.obj (.text:SysCtlClockGet)
                  0000c4e4    000000fc     rtsv7M4_T_le_v4SPD16_eabi.lib : fd_mul_t2.asm.obj (.text)
                  0000c5e0    000000f4     driverlib.lib : sysctl.obj (.text:SysCtlClockSet)
                  0000c6d4    000000c4                   : eeprom.obj (.text:EEPROMProgram)
                  0000c798    0000009c     rtsv7M4_T_le_v4SPD16_eabi.lib : memcpy_t2.asm.obj (.text)
                  0000c834    00000096                                   : ull_div_t2.asm.obj (.text)
                  0000c8ca    00000086                                   : fd_cmp_t2.asm.obj (.text:__aeabi_cdcmple)
                  0000c950    0000007a     driverlib.lib : adc.obj (.text:ADCSequenceStepConfigure)
                  0000c9ca    0000007a     rtsv7M4_T_le_v4SPD16_eabi.lib : memset_t2.asm.obj (.text)
                  0000ca44    0000006e                                   : ltoa.c.obj (.text:ltoa)
                  0000cab2    0000006e                                   : ll_div_t2.asm.obj (.text)
                  0000cb20    00000068     driverlib.lib : interrupt.obj (.text:IntEnable)
                  0000cb88    00000068     rtsv7M4_T_le_v4SPD16_eabi.lib : copy_decompress_lzss.c.obj (.text:decompress:lzss:__TI_decompress_lzss)
                  0000cbf0    00000068     delay.obj (.text)
                  0000cc58    00000060     rtsv7M4_T_le_v4SPD16_eabi.lib : hosttime.c.obj (.text:HOSTtime64)
                  0000ccb8    00000060     driverlib.lib : timer.obj (.text:TimerConfigure)
                  0000cd18    00000060     tiot_timer.obj (.text)
                  0000cd78    00000058     driverlib.lib : gpio.obj (.text:GPIOIntTypeSet)
                  0000cdd0    00000050                   : sysctl.obj (.text:SysCtlPeripheralReset)
                  0000ce20    0000004e                   : adc.obj (.text:ADCSequenceConfigure)
                  0000ce6e    00000002     --HOLE-- [fill = 0]
                  0000ce70    0000004c                   : gpio.obj (.text:GPIOPinConfigure)
                  0000cebc    0000004c                   : i2c.obj (.text:I2CMasterInitExpClk)
                  0000cf08    0000004c     rtsv7M4_T_le_v4SPD16_eabi.lib : atoi.c.obj (.text:atoi)
                  0000cf54    00000046     driverlib.lib : uart.obj (.text:UARTConfigSetExpClk)
                  0000cf9a    00000002     --HOLE-- [fill = 0]
                  0000cf9c    00000044                   : gpio.obj (.text:_GPIOIntNumberGet)
                  0000cfe0    00000044     rtsv7M4_T_le_v4SPD16_eabi.lib : autoinit.c.obj (.text:__TI_auto_init_nobinit_nopinit:__TI_auto_init_nobinit_nopinit)
                  0000d024    00000044                                   : fd_tou_t2.asm.obj (.text)
                  0000d068    00000040     driverlib.lib : eeprom.obj (.text:EEPROMInit)
                  0000d0a8    0000003c                   : eeprom.obj (.text:_EEPROMSectorMaskSet)
                  0000d0e4    00000038                   : eeprom.obj (.text:EEPROMRead)
                  0000d11c    00000038                   : sysctl.obj (.text:SysCtlPeripheralReady)
                  0000d154    00000038     rtsv7M4_T_le_v4SPD16_eabi.lib : trgmsg.c.obj (.text:__TI_writemsg)
                  0000d18c    00000034     driverlib.lib : interrupt.obj (.text:IntRegister)
                  0000d1c0    00000034                   : sysctl.obj (.text:SysCtlPeripheralDisable)
                  0000d1f4    00000034                   : sysctl.obj (.text:SysCtlPeripheralEnable)
                  0000d228    00000034                   : eeprom.obj (.text:_EEPROMSectorMaskClear)
                  0000d25c    00000034     rtsv7M4_T_le_v4SPD16_eabi.lib : trgmsg.c.obj (.text:__TI_readmsg)
                  0000d290    00000034                                   : boot_cortex_m.c.obj (.text:_c_int00_noargs:_c_int00_noargs)
                  0000d2c4    00000034                                   : rand.c.obj (.text:rand)
                  0000d2f8    00000034                                   : strstr.c.obj (.text:strstr)
                  0000d32c    0000002e     driverlib.lib : adc.obj (.text:ADCIntStatus)
                  0000d35a    0000002e     rtsv7M4_T_le_v4SPD16_eabi.lib : i_tofd_t2.asm.obj (.text)
                  0000d388    0000002c     driverlib.lib : gpio.obj (.text:GPIODirModeSet)
                  0000d3b4    0000002c     rtsv7M4_T_le_v4SPD16_eabi.lib : strncmp.c.obj (.text:strncmp)
                  0000d3e0    00000024                                   : memcmp.c.obj (.text:memcmp)
                  0000d404    00000024                                   : rand.c.obj (.text:srand)
                  0000d428    00000020     driverlib.lib : uart.obj (.text:UARTDisable)
                  0000d448    00000020     rtsv7M4_T_le_v4SPD16_eabi.lib : u_tofd_t2.asm.obj (.text)
                  0000d468    0000001e     driverlib.lib : adc.obj (.text:ADCSequenceDataGet)
                  0000d486    0000001a                   : gpio.obj (.text:GPIOPinTypeGPIOOutput)
                  0000d4a0    00000018                   : adc.obj (.text:ADCProcessorTrigger)
                  0000d4b8    00000018                   : gpio.obj (.text:GPIOIntRegister)
                  0000d4d0    00000018     rtsv7M4_T_le_v4SPD16_eabi.lib : ll_mul_t2.asm.obj (.text)
                  0000d4e8    00000018                                   : strcmp.c.obj (.text:strcmp)
                  0000d500    00000016     driverlib.lib : gpio.obj (.text:GPIOPinTypeADC)
                  0000d516    00000016                   : gpio.obj (.text:GPIOPinTypeGPIOInput)
                  0000d52c    00000016                   : gpio.obj (.text:GPIOPinTypeI2C)
                  0000d542    00000016                   : gpio.obj (.text:GPIOPinTypeI2CSCL)
                  0000d558    00000016                   : gpio.obj (.text:GPIOPinTypeUART)
                  0000d56e    00000002     --HOLE-- [fill = 0]
                  0000d570    00000014                   : systick.obj (.text:SysTickEnable)
                  0000d584    00000014                   : systick.obj (.text:SysTickIntEnable)
                  0000d598    00000014                   : uart.obj (.text:UARTEnable)
                  0000d5ac    00000014     rtsv7M4_T_le_v4SPD16_eabi.lib : strcpy.c.obj (.text:strcpy)
                  0000d5c0    00000014                                   : strlen.c.obj (.text:strlen)
                  0000d5d4    00000012     driverlib.lib : timer.obj (.text:TimerLoadSet)
                  0000d5e6    00000012                   : timer.obj (.text:TimerPrescaleSet)
                  0000d5f8    00000012     Telecom_server_query.obj (.text:_Z3absl)
                  0000d60a    00000010     driverlib.lib : interrupt.obj (.text:IntMasterDisable)
                  0000d61a    00000010                   : interrupt.obj (.text:IntMasterEnable)
                  0000d62a    00000002     --HOLE-- [fill = 0]
                  0000d62c    00000010                   : sysctl.obj (.text:SysCtlReset)
                  0000d63c    00000010                   : systick.obj (.text:SysTickPeriodSet)
                  0000d64c    00000010                   : eeprom.obj (.text:_EEPROMWaitForDone)
                  0000d65c    00000010     rtsv7M4_T_le_v4SPD16_eabi.lib : time64.c.obj (.text:__time64)
                  0000d66c    00000010                                   : isdigit.c.obj (.text:isdigit)
                  0000d67c    0000000e     driverlib.lib : adc.obj (.text:ADCSequenceEnable)
                  0000d68a    0000000e                   : gpio.obj (.text:GPIOIntStatus)
                  0000d698    0000000e                   : i2c.obj (.text:I2CRxFIFOFlush)
                  0000d6a6    0000000e                   : i2c.obj (.text:I2CTxFIFOFlush)
                  0000d6b4    0000000e                   : timer.obj (.text:TimerEnable)
                  0000d6c2    0000000e                   : uart.obj (.text:UARTCharGetNonBlocking)
                  0000d6d0    0000000e                   : uart.obj (.text:UARTCharPutNonBlocking)
                  0000d6de    0000000e                   : uart.obj (.text:UARTCharsAvail)
                  0000d6ec    0000000e     rtsv7M4_T_le_v4SPD16_eabi.lib : copy_decompress_none.c.obj (.text:decompress:none:__TI_decompress_none)
                  0000d6fa    0000000c     driverlib.lib : cpu.obj (.text:CPUcpsid)
                  0000d706    0000000c                   : cpu.obj (.text:CPUcpsie)
                  0000d712    0000000c                   : gpio.obj (.text:GPIOIntEnable)
                  0000d71e    00000002     --HOLE-- [fill = 0]
                  0000d720    0000000c                   : sysctl.obj (.text:SysCtlResetCauseGet)
                  0000d72c    0000000c     rtsv7M4_T_le_v4SPD16_eabi.lib : copy_zero_init.c.obj (.text:decompress:ZI:__TI_zero_init)
                  0000d738    0000000c     tm4c1233e6pz_startup_ccs.obj (.text)
                  0000d744    0000000a     driverlib.lib : adc.obj (.text:ADCIntClear)
                  0000d74e    0000000a                   : i2c.obj (.text:I2CMasterEnable)
                  0000d758    0000000a                   : uart.obj (.text:UARTIntStatus)
                  0000d762    00000008                   : i2c.obj (.text:I2CMasterBusy)
                  0000d76a    00000008                   : i2c.obj (.text:I2CMasterSlaveAddrSet)
                  0000d772    00000008                   : timer.obj (.text:TimerIntEnable)
                  0000d77a    00000008                   : uart.obj (.text:UARTBusy)
                  0000d782    00000008                   : uart.obj (.text:UARTIntEnable)
                  0000d78a    00000006                   : gpio.obj (.text:GPIOIntClear)
                  0000d790    00000006                   : gpio.obj (.text:GPIOPinRead)
                  0000d796    00000006                   : gpio.obj (.text:GPIOPinWrite)
                  0000d79c    00000006                   : sysctl.obj (.text:SysCtlDelay)
                  0000d7a2    00000004                   : i2c.obj (.text:I2CMasterControl)
                  0000d7a6    00000004                   : i2c.obj (.text:I2CMasterDataGet)
                  0000d7aa    00000004                   : i2c.obj (.text:I2CMasterDataPut)
                  0000d7ae    00000004                   : timer.obj (.text:TimerIntClear)
                  0000d7b2    00000004                   : uart.obj (.text:UARTIntClear)
                  0000d7b6    00000004     rtsv7M4_T_le_v4SPD16_eabi.lib : pre_init.c.obj (.text:_system_pre_init)
                  0000d7ba    00000004                                   : exit.c.obj (.text:abort:abort)

.const     0    0000d7c0    000006d4     
                  0000d7c0    000001d6     GLCD.obj (.const:.string:font5x8)
                  0000d996    00000101     rtsv7M4_T_le_v4SPD16_eabi.lib : ctype.c.obj (.const:.string:_ctypes_)
                  0000da97    00000001     --HOLE-- [fill = 0]
                  0000da98    000000d8     driverlib.lib : gpio.obj (.const:g_ppui32GPIOIntMapSnowflake)
                  0000db70    000000c0                   : gpio.obj (.const:g_ppui32GPIOIntMapBlizzard)
                  0000dc30    00000090                   : gpio.obj (.const:g_pui32GPIOBaseAddrs)
                  0000dcc0    0000006c                   : sysctl.obj (.const:g_pui32Xtals)
                  0000dd2c    00000060     rtsv7M4_T_le_v4SPD16_eabi.lib : mktime64.c.obj (.const:$O1$$)
                  0000dd8c    0000004e     GLCD.obj (.const:.string:BattFont5x8)
                  0000ddda    00000041     _common.obj (.const:.string:$P$T0$1)
                  0000de1b    00000001     --HOLE-- [fill = 0]
                  0000de1c    00000024     Clock.obj (.const:$P$T0$1)
                  0000de40    00000019     gprs.obj (.const:.string:$P$T0$11)
                  0000de59    00000014     GLCD.obj (.const:.string:NetworkFont5x8)
                  0000de6d    00000003     --HOLE-- [fill = 0]
                  0000de70    00000014     driverlib.lib : interrupt.obj (.const:g_pui32EnRegs)
                  0000de84    00000008     Clock.obj (.const:$P$T1$2)
                  0000de8c    00000008     gprs.obj (.const:.string:$P$T1$18)

.cinit     0    0000de98    00000098     
                  0000de98    0000005d     (.cinit..data.load) [load image, compression = lzss]
                  0000def5    00000003     --HOLE-- [fill = 0]
                  0000def8    0000000c     (__TI_handler_table)
                  0000df04    00000004     --HOLE-- [fill = 0]
                  0000df08    00000008     (.cinit..bss.load) [load image, compression = zero_init]
                  0000df10    00000008     (.cinit..vtable.load) [load image, compression = zero_init]
                  0000df18    00000018     (__TI_cinit_table)

.init_array 
*          0    00000000    00000000     UNINITIALIZED

.vtable    0    20000000    0000026c     UNINITIALIZED
                  20000000    0000026c     driverlib.lib : interrupt.obj (.vtable)

.bss       0    20001a70    00000de3     UNINITIALIZED
                  20001a70    000001fc     (.common:gprs_rx_buff)
                  20001c6c    000001fc     (.common:gprs_tx_buff)
                  20001e68    00000188     (.common:dummy_json_string)
                  20001ff0    0000017c     (.common:adc)
                  2000216c    00000130     (.common:display_tx)
                  2000229c    00000120     rtsv7M4_T_le_v4SPD16_eabi.lib : trgmsg.c.obj (.bss:_CIOBUF_)
                  200023bc    000000d6     (.common:cloud_config)
                  20002492    00000002     (.common:BCD_MODE)
                  20002494    000000a0     (.common:display_uart_rx)
                  20002534    000000a0     (.common:pc_uart_rx)
                  200025d4    00000080     (.common:e2p_cloud_config)
                  20002654    00000050     (.common:pc_uart_tx)
                  200026a4    00000040     (.common:FLR_log_data)
                  200026e4    00000040     (.common:FL_log_data)
                  20002724    00000036     (.common:ram_data)
                  2000275a    00000029     (.common:adc_arr)
                  20002783    0000001f     (.common:time_main)
                  200027a2    0000001c     (.common:measurements)
                  200027be    00000002     (.common:EXTI_cnt)
                  200027c0    00000014     (.common:gprs)
                  200027d4    00000010     (.common:e2p_device_info)
                  200027e4    00000010     (.common:e2p_location_info)
                  200027f4    00000010     (.common:freq_updated_data)
                  20002804    0000000e     (.common:scheduler)
                  20002812    0000000c     (.common:Alarms)
                  2000281e    00000008     (.common:e2p_config_time)
                  20002826    00000008     (.common:e2p_router_config)
                  2000282e    00000008     (.common:parmbuf)
                  20002836    00000007     (.common:gprs_date_time)
                  2000283d    00000006     (.common:time_stamp)
                  20002843    00000004     (.common:Telecom_server_query)
                  20002847    00000001     (.common:System_mode)
                  20002848    00000004     (.common:u32DelayCounter)
                  2000284c    00000003     (.common:relay_state)
                  2000284f    00000002     (.common:gprs_rx_isr_handler)
                  20002851    00000001     (.common:network_status)
                  20002852    00000001     (.common:voltage_mode)

.data      0    20002858    000000d0     UNINITIALIZED
                  20002858    00000041     gprs.obj (.data)
                  20002899    0000001b     Telecom_server_query.obj (.data:server_response_str)
                  200028b4    00000004     _common.obj (.data)
                  200028b8    00000012     ADC_Core.obj (.data)
                  200028ca    00000002     IO_cntrl.obj (.data)
                  200028cc    00000010     flash_logger.obj (.data:FL_data)
                  200028dc    00000010     rtsv7M4_T_le_v4SPD16_eabi.lib : tmzone.c.obj (.data:_tz)
                  200028ec    00000010     main.obj (.data)
                  200028fc    0000000c     SysTick_Timer.obj (.data)
                  20002908    0000000c     UartCore.obj (.data)
                  20002914    00000008     rtsv7M4_T_le_v4SPD16_eabi.lib : _lock.c.obj (.data:$O1$$)
                  2000291c    00000008     GLCD.obj (.data)
                  20002924    00000004     rtsv7M4_T_le_v4SPD16_eabi.lib : rand.c.obj (.data)

.stack     0    20000270    00001800     UNINITIALIZED
                  20000270    00000004     rtsv7M4_T_le_v4SPD16_eabi.lib : boot_cortex_m.c.obj (.stack)
                  20000274    000017fc     --HOLE--

__llvm_prf_cnts 
*          0    20000000    00000000     UNINITIALIZED

MODULE SUMMARY

       Module                         code    ro data   rw data
       ------                         ----    -------   -------
    .\
       tm4c1233e6pz_startup_ccs.obj   12      620       0      
    +--+------------------------------+-------+---------+---------+
       Total:                         12      620       0      
                                                               
    .\Sources\
       gprs.obj                       14332   33        1110   
       GLCD.obj                       4232    568       8      
       Clock.obj                      4432    44        37     
       Telecom_server_query.obj       3290    0         424    
       ADC_Core.obj                   2784    0         467    
       E2P.obj                        2608    0         390    
       IO_cntrl.obj                   2800    0         10     
       main.obj                       2584    0         28     
       flashCore.obj                  2544    0         0      
       PC_Cmds.obj                    2428    0         1      
       UartCore.obj                   1520    0         716    
       flash_logger.obj               1848    0         214    
       _common.obj                    1296    65        4      
       DS3231.obj                     528     0         0      
       SysTick_Timer.obj              484     0         30     
       delay.obj                      104     0         0      
       tiot_timer.obj                 96      0         0      
    +--+------------------------------+-------+---------+---------+
       Total:                         47910   710       3439   
                                                               
    C:/ti/TivaWare_C_Series-2.2.0.295/driverlib/ccs/Debug/driverlib.lib
       gpio.obj                       844     552       0      
       sysctl.obj                     798     108       0      
       interrupt.obj                  188     20        620    
       eeprom.obj                     444     0         0      
       adc.obj                        324     0         0      
       uart.obj                       194     0         0      
       timer.obj                      158     0         0      
       i2c.obj                        142     0         0      
       systick.obj                    56      0         0      
       cpu.obj                        24      0         0      
    +--+------------------------------+-------+---------+---------+
       Total:                         3172    680       620    
                                                               
    C:\ti\ccs1110\ccs\tools\compiler\ti-cgt-arm_20.2.6.LTS\lib\rtsv7M4_T_le_v4SPD16_eabi.lib
       mktime64.c.obj                 696     96        0      
       fd_add_t2.asm.obj              438     0         0      
       trgmsg.c.obj                   108     0         288    
       fd_div_t2.asm.obj              310     0         0      
       ctype.c.obj                    0       257       0      
       fd_mul_t2.asm.obj              252     0         0      
       memcpy_t2.asm.obj              156     0         0      
       ull_div_t2.asm.obj             150     0         0      
       fd_cmp_t2.asm.obj              134     0         0      
       memset_t2.asm.obj              122     0         0      
       ll_div_t2.asm.obj              110     0         0      
       ltoa.c.obj                     110     0         0      
       copy_decompress_lzss.c.obj     104     0         0      
       hosttime.c.obj                 96      0         0      
       rand.c.obj                     88      0         4      
       atoi.c.obj                     76      0         0      
       autoinit.c.obj                 68      0         0      
       fd_tou_t2.asm.obj              68      0         0      
       boot_cortex_m.c.obj            52      0         0      
       strstr.c.obj                   52      0         0      
       i_tofd_t2.asm.obj              46      0         0      
       strncmp.c.obj                  44      0         0      
       memcmp.c.obj                   36      0         0      
       u_tofd_t2.asm.obj              32      0         0      
       ll_mul_t2.asm.obj              24      0         0      
       strcmp.c.obj                   24      0         0      
       strcpy.c.obj                   20      0         0      
       strlen.c.obj                   20      0         0      
       isdigit.c.obj                  16      0         0      
       time64.c.obj                   16      0         0      
       tmzone.c.obj                   0       0         16     
       copy_decompress_none.c.obj     14      0         0      
       copy_zero_init.c.obj           12      0         0      
       _lock.c.obj                    2       0         8      
       hostopen.c.obj                 0       0         8      
       exit.c.obj                     4       0         0      
       pre_init.c.obj                 4       0         0      
       div0.asm.obj                   2       0         0      
    +--+------------------------------+-------+---------+---------+
       Total:                         3506    353       324    
                                                               
       Stack:                         0       0         6144   
       Linker Generated:              0       145       0      
    +--+------------------------------+-------+---------+---------+
       Grand Total:                   54600   2508      10527  


LINKER GENERATED COPY TABLES

__TI_cinit_table @ 0000df18 records: 3, size/record: 8, table size: 24
	.data: load addr=0000de98, load size=0000005d bytes, run addr=20002858, run size=000000d0 bytes, compression=lzss
	.bss: load addr=0000df08, load size=00000008 bytes, run addr=20001a70, run size=00000de3 bytes, compression=zero_init
	.vtable: load addr=0000df10, load size=00000008 bytes, run addr=20000000, run size=0000026c bytes, compression=zero_init


LINKER GENERATED HANDLER TABLE

__TI_handler_table @ 0000def8 records: 3, size/record: 4, table size: 12
	index: 0, handler: __TI_zero_init
	index: 1, handler: __TI_decompress_lzss
	index: 2, handler: __TI_decompress_none


GLOBAL SYMBOLS: SORTED ALPHABETICALLY BY Name 

address   name                                              
-------   ----                                              
20002900  ACVoltReadMillis                                  
0000d745  ADCIntClear                                       
0000d32d  ADCIntStatus                                      
0000d4a1  ADCProcessorTrigger                               
0000ce21  ADCSequenceConfigure                              
0000d469  ADCSequenceDataGet                                
0000d67d  ADCSequenceEnable                                 
0000c951  ADCSequenceStepConfigure                          
20002812  Alarms                                            
20002492  BCD_MODE                                          
0000d7bb  C$$EXIT                                           
0000d183  C$$IO$$                                           
0000d6fb  CPUcpsid                                          
0000d707  CPUcpsie                                          
0000ae7b  DEBUGUARTIntHandler                               
0000d069  EEPROMInit                                        
0000c6d5  EEPROMProgram                                     
0000d0e5  EEPROMRead                                        
200027be  EXTI_cnt                                          
200026a4  FLR_log_data                                      
200026e4  FL_log_data                                       
200028f8  GLCD_startup_time                                 
0000d389  GPIODirModeSet                                    
0000d78b  GPIOIntClear                                      
0000d713  GPIOIntEnable                                     
0000d4b9  GPIOIntRegister                                   
0000d68b  GPIOIntStatus                                     
0000cd79  GPIOIntTypeSet                                    
0000c129  GPIOPadConfigSet                                  
0000ce71  GPIOPinConfigure                                  
0000d791  GPIOPinRead                                       
0000d501  GPIOPinTypeADC                                    
0000d517  GPIOPinTypeGPIOInput                              
0000d487  GPIOPinTypeGPIOOutput                             
0000d52d  GPIOPinTypeI2C                                    
0000d543  GPIOPinTypeI2CSCL                                 
0000d559  GPIOPinTypeUART                                   
0000d797  GPIOPinWrite                                      
0000cc59  HOSTtime64                                        
0000d763  I2CMasterBusy                                     
0000d7a3  I2CMasterControl                                  
0000d7a7  I2CMasterDataGet                                  
0000d7ab  I2CMasterDataPut                                  
0000d74f  I2CMasterEnable                                   
0000cebd  I2CMasterInitExpClk                               
0000d76b  I2CMasterSlaveAddrSet                             
0000d699  I2CRxFIFOFlush                                    
0000d6a7  I2CTxFIFOFlush                                    
0000cb21  IntEnable                                         
0000d60b  IntMasterDisable                                  
0000d61b  IntMasterEnable                                   
0000d18d  IntRegister                                       
0000b00d  LTEUARTIntHandler                                 
200028c0  NE_ADC_RAW_MAX                                    
200028b8  PN_ADC_RAW_MAX                                    
0000d739  ResetISR                                          
0000c3cd  SysCtlClockGet                                    
0000c5e1  SysCtlClockSet                                    
0000d79d  SysCtlDelay                                       
0000d1c1  SysCtlPeripheralDisable                           
0000d1f5  SysCtlPeripheralEnable                            
0000d11d  SysCtlPeripheralReady                             
0000cdd1  SysCtlPeripheralReset                             
0000d62d  SysCtlReset                                       
0000d721  SysCtlResetCauseGet                               
0000d571  SysTickEnable                                     
0000d585  SysTickIntEnable                                  
0000bda9  SysTickIntHandler                                 
0000d63d  SysTickPeriodSet                                  
20002847  System_mode                                       
20002843  Telecom_server_query                              
0000ccb9  TimerConfigure                                    
0000d6b5  TimerEnable                                       
0000d7af  TimerIntClear                                     
0000d773  TimerIntEnable                                    
0000cd53  TimerIntHandler                                   
0000d5d5  TimerLoadSet                                      
0000d5e7  TimerPrescaleSet                                  
0000d77b  UARTBusy                                          
0000d6c3  UARTCharGetNonBlocking                            
0000d6d1  UARTCharPutNonBlocking                            
0000d6df  UARTCharsAvail                                    
0000cf55  UARTConfigSetExpClk                               
0000d429  UARTDisable                                       
0000d599  UARTEnable                                        
0000d7b3  UARTIntClear                                      
0000d783  UARTIntEnable                                     
0000d759  UARTIntStatus                                     
00009cff  _Z10Chip_Erasev                                   
00007c31  _Z10GetAdcDatav                                   
0000bbdb  _Z10I2CReceivev                                   
00006be9  _Z10ToggleLEDsv                                   
00003d1d  _Z10asUnixTimeiiiiii                              
0000a9fb  _Z10clear_logsv                                   
0000684d  _Z10getREQmodev                                   
0000b417  _Z10my_sprintfPciz                                
00005b89  _Z10print_dashv                                   
00006839  _Z10setREQmode13gprs_status_t                     
00005a5d  _Z10updateGlcdv                                   
000045ed  _Z10update_rtcPci                                 
0000cd19  _Z10vTimerInitv                                   
00003797  _Z10valid_codePc                                  
00006c95  _Z11SetODU_Mode14voltage_mode_t                   
00009b33  _Z11SetSI_Inputv                                  
00009b4f  _Z11SetSO_Inputv                                  
00000279  _Z11TCP_Handlerv                                  
0000b135  _Z11Usendbufferj                                  
0000aa2b  _Z11clear_flashv                                  
0000b7e3  _Z11count_commaPct                                
00009739  _Z11flashCopyMRPcS_                               
0000b3c1  _Z11getChecksumPhc                                
00004059  _Z11getDateTimev                                  
0000aa49  _Z11get_log_cnti                                  
00003881  _Z11get_rx_dataPc                                 
00008dd1  _Z11init_configv                                  
000018ad  _Z11tcp_connectv                                  
0000bb7d  _Z11vRTCI2CInitv                                  
000073f9  _Z12ADC_PortIniti                                 
00005421  _Z12AlarmDisplayv                                 
00005c41  _Z12Query_decodePcPKcS_i                          
00009a43  _Z12Sector_Erasem                                 
00009b25  _Z12SetSI_Outputv                                 
00009b41  _Z12SetSO_Outputv                                 
00003d6d  _Z12calcTimeDiff12time_stamp_tS_                  
000038dd  _Z12check_stringPKcPcPi                           
0000aa17  _Z12clear_log_idv                                 
000095c3  _Z12flashSwResetv                                 
0000a8fd  _Z12flashWriteTRv                                 
00008b19  _Z12getRAM_Alarmv                                 
000092b5  _Z12getRSTreasonv                                 
0000aaf1  _Z12get_log_dataimPc                              
0000093d  _Z12gprs_connectv                                 
00004adb  _Z12is_leap_yearh                                 
00003561  _Z12read_ip_portPci                               
000037e3  _Z12respos_recvdPci                               
00005d57  _Z12server_queryv                                 
00008ae1  _Z12setRAM_Alarm16Alarm_sts_bits_tb               
000071f1  _Z12vEarthDetectv                                 
00006bc3  _Z12vGPIO_Togglejhh                               
00006a0b  _Z12vLEDGPIOInitv                                 
0000ae13  _Z12vLTEUARTInitv                                 
00004895  _Z13add_date_timeP12time_stamp_tS0_j              
00006e15  _Z13controlRelaysv                                
0000b659  _Z13delete_SubStrPcS_c                            
000095db  _Z13enable_wp_pinv                                
0000b245  _Z13flushRxBufferi                                
0000b275  _Z13flushTxBufferi                                
000079a5  _Z13getODUCurrentv                                
00007a71  _Z13getODUVoltagev                                
00008b57  _Z13getRAM_Statusv                                
000072cb  _Z13get_ODU_statev                                
00008487  _Z13get_device_idv                                
0000374b  _Z13pong_receivedPc                               
00007c05  _Z13readACVoltagev                                
00008b1f  _Z13setRAM_Statushb                               
000072b1  _Z13set_ODU_state18relay_ctrl_state_t             
000083e5  _Z13set_device_idPc                               
0000bee5  _Z13vMAIN_DelayMSj                                
0000b079  _Z13vUART_SendChrjh                               
0000b10d  _Z13vUART_SendIntji                               
0000b0a9  _Z13vUART_SendStrjPKh                             
00004d21  _Z14GLCD_Initalizev                               
00004e79  _Z14GLCD_WriteCharc                               
00004ca9  _Z14GLCD_WriteDatah                               
00009321  _Z14Reset_Hold_Lowv                               
00004775  _Z14StrToTimeStampPh                              
00003eb7  _Z14getDaysOfMonthcj                              
00007b51  _Z14getSMPSVoltagev                               
000070c5  _Z14isSupplyStablev                               
00009685  _Z14readContToBuffmjPc                            
00003335  _Z14tcp_disconnectv                               
0000adc5  _Z14vDEBUGUARTInitv                               
00008c91  _Z14write_defaultsj                               
00005065  _Z15Data_Screen_lcdv                              
00004e4b  _Z15GLCD_Clear_Lineh                              
0000932f  _Z15Reset_Hold_Highv                              
00003bc3  _Z15check_date_timePcS_                           
000093f3  _Z15flashClrTR_Logsv                              
0000a68d  _Z15flashWriteMR_BRv                              
00003831  _Z15generateMaskKeyPh                             
0000ad47  _Z15get_unsent_logsv                              
000039ff  _Z15get_upload_datav                              
00003a2b  _Z15get_webconn_stsv                              
000093a7  _Z15init_flash_pinsv                              
0000368d  _Z15match_cpsi_dataPc                             
000039eb  _Z15set_upload_data13upload_data_t                
00003a17  _Z15set_webconn_stsh                              
00008a9d  _Z15update_ram_datav                              
00007189  _Z15vEarthCheckInitv                              
00007163  _Z15vFreqDetectInitv                              
00006909  _Z15vGPIOPortEnablev                              
00007ed9  _Z15vPERIPH_E2PInitv                              
0000b0d1  _Z15vUART_SendBytesjPKhj                          
00001e71  _Z15websckt_connectv                              
000056d9  _Z16AlarmDisplayTestv                             
00007229  _Z16ControlODU_Relayh                             
00004df7  _Z16GLCD_ClearScreenv                             
00004eb7  _Z16GLCD_WriteStringPc                            
0000ad39  _Z16check_unsent_logv                             
00009d11  _Z16decodeMsgPC_Uartv                             
000097d9  _Z16flashEraseBackupv                             
000096f9  _Z16flashEraseMasterv                             
00009775  _Z16flashEraseSectormm                            
0000a8f1  _Z16flashGetSerMR_BRv                             
00006885  _Z16getClientMSGTypev                             
00006869  _Z16getServerReqTypev                             
00007c9d  _Z16get_ADC_SIGarray14ADC_Channels_th             
0000458b  _Z16get_present_timeP12time_stamp_t               
000072e7  _Z16get_router_statev                             
0000a5fb  _Z16get_system_statev                             
00006871  _Z16setClientMSGType21client_message_type_t       
00006855  _Z16setServerReqType21server_request_type_t       
000072d3  _Z16set_router_state18relay_ctrl_state_t          
0000a5e7  _Z16set_system_state10sys_mode_t                  
00003a75  _Z16update_date_timev                             
000069bd  _Z16vGPIO_UnlockGPIOjh                            
00006a21  _Z16vPERIPH_GPIOInitv                             
0000ae6f  _Z16vPERIPH_UARTInitv                             
0000a9cd  _Z16validate_FL_addrcm                            
00006639  _Z16websocket_packetPh                            
00005b0d  _Z17Display_CFGScreenv                            
0000719b  _Z17FREQDetIntHandlerv                            
00004c57  _Z17GLCD_WriteCommandhh                           
0000674d  _Z17HandleQueryStatesv                            
00003f71  _Z17check_expire_time12time_stamp_tS_             
00008755  _Z17cloud_config_datav                            
0000826d  _Z17e2p_read_cfg_timev                            
0000817d  _Z17e2p_read_locationv                            
00009359  _Z17flash_port_assignv                            
0000b71d  _Z17generateRandomKeyiPc                          
00007af1  _Z17getBatteryVoltagev                            
00006045  _Z17prepare_JSON_pcktv                            
0000ad9d  _Z17save_TELECOM_datav                            
0000a5c9  _Z17tx_pending_dataPCv                            
00008b5d  _Z17vPERIPH_ClockInitv                            
000039d1  _Z18check_string_nobufPKc                         
00003c9b  _Z18convertToEpochTimePK12time_stamp_t            
00007fe1  _Z18e2p_read_cloud_cfgv                           
00008213  _Z18e2p_write_cfg_timev                           
00008129  _Z18e2p_write_locationv                           
0000981d  _Z18flashPacketProgramPctm                        
00008f55  _Z18getRelay_CtrlStatev                           
0000870b  _Z18get_fixed_locationv                           
000068a1  _Z18get_network_statusv                           
000067c5  _Z18prepare_server_pktv                           
00006a77  _Z18readBCD_SelectorSWv                           
000084f9  _Z18set_fixed_locationPc                          
0000688d  _Z18set_network_statush                           
00002fe9  _Z18websckt_disconnectv                           
00007269  _Z19ControlRouter_Relayh                          
00004bb9  _Z19GLCD_InitalizePortsv                          
00004f6f  _Z19GLCD_PrintRightIconv                          
00004fa3  _Z19GLCD_PrintWrongIconv                          
00007bcb  _Z19calculate_NE_AC_ADCv                          
00007ba5  _Z19calculate_PN_AC_ADCv                          
00004b31  _Z19check_dateTime_dataP12time_stamp_t            
0000809f  _Z19e2p_read_device_cfgv                          
00007fb1  _Z19e2p_write_cloud_cfgv                          
00009435  _Z19flashClrFreqUpdLogsv                          
00003a45  _Z19get_gprs_connct_stsv                          
00006833  _Z19get_pending_requestv                          
000013a1  _Z19gprs_connect_statusv                          
00006bfd  _Z19init_ODU_Supplypinsv                          
00003a31  _Z19set_gprs_connct_stsh                          
0000681f  _Z19set_pending_requestb                          
0000a725  _Z19updateFlashCurrAddrv                          
00009021  _Z19update_alarm_statusv                          
0000bd8d  _Z19vPERIPH_SystickInitv                          
00005b45  _Z20Display_BootUPscreenv                         
00004ee5  _Z20GLCD_PrintBatteryStsv                         
00004fd5  _Z20GLCD_PrintNetworkStsv                         
00005011  _Z20GLCD_PrintTopBoarderv                         
00009b7d  _Z20Read_Status_Registerv                         
0000806f  _Z20e2p_write_device_cfgv                         
0000abed  _Z20flashReadFreqUpdDataP19freq_updated_data_tmi  
00000855  _Z20resetTCP_SubHandlersv                         
00004bf7  _Z21GLCD_EnableControllerh                        
0000ab7f  _Z21flashWriteFreqUpdDataP19freq_updated_data_tm  
00007a09  _Z21getRouter1_DC_currentv                        
0000ac15  _Z21readFreqUpdData_flashv                        
00004c27  _Z22GLCD_DisableControllerh                       
00009479  _Z22addDummyFL_TelecomLogsj                       
00007381  _Z22control_inverter_inputb                       
0000a8cb  _Z22flashGetCurrUploadAddrc                       
00005031  _Z23GLCD_PrintButtomBoarderv                      
00007f27  _Z23e2p_read_voltage_configv                      
00006299  _Z23prepare_unsentJSON_pcktv                      
00009a7d  _Z23remove_block_protectionv                      
0000ad67  _Z23save_OfflineTelecomDatav                      
0000b1ad  _Z23vUART_CheckFrameTimeouti                      
00007357  _Z24control_battery_chargingb                     
0000aced  _Z24decrement_unsent_log_cnti                     
00007ee7  _Z24e2p_write_voltage_configv                     
000073a5  _Z24get_detection_parametersv                     
0000ad13  _Z24increment_unsent_log_cnti                     
00009d37  _Z24preparePC_ResponsePacket5cmd_tPchii           
0000b78f  _Z25count_doubleSquareBracketPcj                  
0000a8a5  _Z25flashGetCurrDataWriteAddrc                    
0000b2dd  _Z25prepare_graphical_tx_buffjPch                 
0000732b  _Z26get_router_selection_statev                   
0000ad89  _Z26prepare_OfflineTelecomDatav                   
00007317  _Z26set_router_selection_state18relay_ctrl_state_t
00008b7d  _Z26vMAIN_InitClockPeripheralsv                   
0000ab5b  _Z27flashClearFreqUpdatedConfigv                  
0000ab39  _Z27flashEraseFreqUpdDataSectorv                  
0000abad  _Z27flashWriteFreqUpdatedConfigv                  
0000728d  _Z28ControlRouterSelection_Relayh                 
0000d5f9  _Z3absl                                           
00009aa7  _Z4WBPRc                                          
00009621  _Z4WRCRc                                          
0000960f  _Z4WRDIv                                          
000095fd  _Z4WRENv                                          
0000cc25  _Z5delayj                                         
00009653  _Z6CE_Lowv                                        
00009b5d  _Z6SI_Lowv                                        
0000933d  _Z6WP_Lowv                                        
00009645  _Z7CE_Highv                                       
00009671  _Z7SCK_Lowv                                       
00009b6d  _Z7SI_Highv                                       
0000934b  _Z7WP_Highv                                       
0000b879  _Z7findMaxPii                                     
0000806b  _Z7get_urlv                                       
00004313  _Z7isDT_okv                                       
00007637  _Z7readADCh                                       
0000b609  _Z7reversePci                                     
00008321  _Z7set_urlPc                                      
00009c85  _Z8Get_Bytev                                      
0000bc25  _Z8Read_RTCPhh                                    
00009661  _Z8SCK_Highv                                      
0000aa9d  _Z8get_addrim                                     
0000b59b  _Z8intToStriPci                                   
00009e45  _Z8response5cmd_ti                                
0000cbf1  _Z8sleep_usi                                      
00002a5d  _Z8tcp_sendPci                                    
00004d59  _Z9GLCD_GoTohh                                    
00009ba1  _Z9Send_Byteh                                     
000098a1  _Z9Wait_Busyv                                     
0000bced  _Z9Write_RTCPhh                                   
0000bf13  _Z9_delay_usi                                     
000093c9  _Z9flashInitv                                     
0000bf03  _Z9my_millisv                                     
0000b82b  _Z9my_strstrPKcS0_i                               
000024f5  _Z9ping_sendv                                     
000043ed  _Z9time_syncv                                     
000076f9  _Z9updateADC14ADC_Channels_th                     
000075e1  _Z9vADC0Initv                                     
2000229c  __CIOBUF_                                         
20001a70  __STACK_END                                       
00001800  __STACK_SIZE                                      
20000470  __STACK_TOP                                       
0000df18  __TI_CINIT_Base                                   
0000df30  __TI_CINIT_Limit                                  
0000def8  __TI_Handler_Table_Base                           
0000df04  __TI_Handler_Table_Limit                          
0000cfe1  __TI_auto_init_nobinit_nopinit                    
0000cb89  __TI_decompress_lzss                              
0000d6ed  __TI_decompress_none                              
ffffffff  __TI_pprof_out_hndl                               
ffffffff  __TI_prof_data_size                               
ffffffff  __TI_prof_data_start                              
0000d25d  __TI_readmsg                                      
00000000  __TI_static_base__                                
0000d155  __TI_writemsg                                     
0000d72d  __TI_zero_init                                    
0000c8cb  __aeabi_cdcmpeq                                   
0000c8cb  __aeabi_cdcmple                                   
0000d025  __aeabi_d2uiz                                     
0000bf7b  __aeabi_dadd                                      
0000c295  __aeabi_ddiv                                      
0000c4e5  __aeabi_dmul                                      
0000bf71  __aeabi_dsub                                      
0000d35b  __aeabi_i2d                                       
0000c3cb  __aeabi_idiv0                                     
0000c3cb  __aeabi_ldiv0                                     
0000cab3  __aeabi_ldivmod                                   
0000d4d1  __aeabi_lmul                                      
0000c9cb  __aeabi_memclr                                    
0000c9cb  __aeabi_memclr4                                   
0000c9cb  __aeabi_memclr8                                   
0000c799  __aeabi_memcpy                                    
0000c799  __aeabi_memcpy4                                   
0000c799  __aeabi_memcpy8                                   
0000c9cd  __aeabi_memset                                    
0000c9cd  __aeabi_memset4                                   
0000c9cd  __aeabi_memset8                                   
0000d449  __aeabi_ui2d                                      
0000c835  __aeabi_uldivmod                                  
ffffffff  __binit__                                         
ffffffff  __c_args__                                        
0000b8c5  __mktime64                                        
UNDEFED   __mpu_init                                        
20000270  __stack                                           
20000000  __start___llvm_prf_cnts                           
20000000  __stop___llvm_prf_cnts                            
0000d65d  __time64                                          
0000d291  _c_int00_noargs                                   
0000d996  _ctypes_                                          
20002914  _lock                                             
0000c127  _nop                                              
UNDEFED   _system_post_cinit                                
0000d7b7  _system_pre_init                                  
200028dc  _tz                                               
20002918  _unlock                                           
0000d7bb  abort                                             
20001ff0  adc                                               
2000275a  adc_arr                                           
0000cf09  atoi                                              
ffffffff  binit                                             
200023bc  cloud_config                                      
20002904  counter_10sec                                     
2000216c  display_tx                                        
20002494  display_uart_rx                                   
20001e68  dummy_json_string                                 
200025d4  e2p_cloud_config                                  
2000281e  e2p_config_time                                   
200027d4  e2p_device_info                                   
200027e4  e2p_location_info                                 
20002826  e2p_router_config                                 
200027f4  freq_updated_data                                 
20002908  g_bIntFlag                                        
20000000  g_pfnRAMVectors                                   
00000000  g_pfnVectors                                      
200027c0  gprs                                              
20002836  gprs_date_time                                    
20001a70  gprs_rx_buff                                      
2000284f  gprs_rx_isr_handler                               
20001c6c  gprs_tx_buff                                      
0000d66d  isdigit                                           
0000ca45  ltoa                                              
00008909  main                                              
200027a2  measurements                                      
0000d3e1  memcmp                                            
0000c799  memcpy                                            
0000c9d3  memset                                            
200028fc  millis_cnt                                        
20002851  network_status                                    
2000282e  parmbuf                                           
20002534  pc_uart_rx                                        
20002654  pc_uart_tx                                        
20002724  ram_data                                          
0000d2c5  rand                                              
200028f4  relay_startup_time                                
2000284c  relay_state                                       
200028f0  save_offline_time                                 
20002804  scheduler                                         
2000291c  screen_x                                          
20002899  server_response_str                               
0000d405  srand                                             
0000d4e9  strcmp                                            
0000d5ad  strcpy                                            
0000d5c1  strlen                                            
0000d3b5  strncmp                                           
0000d2f9  strstr                                            
20002783  time_main                                         
2000283d  time_stamp                                        
20002848  u32DelayCounter                                   
200028ec  upload_time                                       
20002852  voltage_mode                                      


GLOBAL SYMBOLS: SORTED BY Symbol Address 

address   name                                              
-------   ----                                              
00000000  __TI_static_base__                                
00000000  g_pfnVectors                                      
00000279  _Z11TCP_Handlerv                                  
00000855  _Z20resetTCP_SubHandlersv                         
0000093d  _Z12gprs_connectv                                 
000013a1  _Z19gprs_connect_statusv                          
00001800  __STACK_SIZE                                      
000018ad  _Z11tcp_connectv                                  
00001e71  _Z15websckt_connectv                              
000024f5  _Z9ping_sendv                                     
00002a5d  _Z8tcp_sendPci                                    
00002fe9  _Z18websckt_disconnectv                           
00003335  _Z14tcp_disconnectv                               
00003561  _Z12read_ip_portPci                               
0000368d  _Z15match_cpsi_dataPc                             
0000374b  _Z13pong_receivedPc                               
00003797  _Z10valid_codePc                                  
000037e3  _Z12respos_recvdPci                               
00003831  _Z15generateMaskKeyPh                             
00003881  _Z11get_rx_dataPc                                 
000038dd  _Z12check_stringPKcPcPi                           
000039d1  _Z18check_string_nobufPKc                         
000039eb  _Z15set_upload_data13upload_data_t                
000039ff  _Z15get_upload_datav                              
00003a17  _Z15set_webconn_stsh                              
00003a2b  _Z15get_webconn_stsv                              
00003a31  _Z19set_gprs_connct_stsh                          
00003a45  _Z19get_gprs_connct_stsv                          
00003a75  _Z16update_date_timev                             
00003bc3  _Z15check_date_timePcS_                           
00003c9b  _Z18convertToEpochTimePK12time_stamp_t            
00003d1d  _Z10asUnixTimeiiiiii                              
00003d6d  _Z12calcTimeDiff12time_stamp_tS_                  
00003eb7  _Z14getDaysOfMonthcj                              
00003f71  _Z17check_expire_time12time_stamp_tS_             
00004059  _Z11getDateTimev                                  
00004313  _Z7isDT_okv                                       
000043ed  _Z9time_syncv                                     
0000458b  _Z16get_present_timeP12time_stamp_t               
000045ed  _Z10update_rtcPci                                 
00004775  _Z14StrToTimeStampPh                              
00004895  _Z13add_date_timeP12time_stamp_tS0_j              
00004adb  _Z12is_leap_yearh                                 
00004b31  _Z19check_dateTime_dataP12time_stamp_t            
00004bb9  _Z19GLCD_InitalizePortsv                          
00004bf7  _Z21GLCD_EnableControllerh                        
00004c27  _Z22GLCD_DisableControllerh                       
00004c57  _Z17GLCD_WriteCommandhh                           
00004ca9  _Z14GLCD_WriteDatah                               
00004d21  _Z14GLCD_Initalizev                               
00004d59  _Z9GLCD_GoTohh                                    
00004df7  _Z16GLCD_ClearScreenv                             
00004e4b  _Z15GLCD_Clear_Lineh                              
00004e79  _Z14GLCD_WriteCharc                               
00004eb7  _Z16GLCD_WriteStringPc                            
00004ee5  _Z20GLCD_PrintBatteryStsv                         
00004f6f  _Z19GLCD_PrintRightIconv                          
00004fa3  _Z19GLCD_PrintWrongIconv                          
00004fd5  _Z20GLCD_PrintNetworkStsv                         
00005011  _Z20GLCD_PrintTopBoarderv                         
00005031  _Z23GLCD_PrintButtomBoarderv                      
00005065  _Z15Data_Screen_lcdv                              
00005421  _Z12AlarmDisplayv                                 
000056d9  _Z16AlarmDisplayTestv                             
00005a5d  _Z10updateGlcdv                                   
00005b0d  _Z17Display_CFGScreenv                            
00005b45  _Z20Display_BootUPscreenv                         
00005b89  _Z10print_dashv                                   
00005c41  _Z12Query_decodePcPKcS_i                          
00005d57  _Z12server_queryv                                 
00006045  _Z17prepare_JSON_pcktv                            
00006299  _Z23prepare_unsentJSON_pcktv                      
00006639  _Z16websocket_packetPh                            
0000674d  _Z17HandleQueryStatesv                            
000067c5  _Z18prepare_server_pktv                           
0000681f  _Z19set_pending_requestb                          
00006833  _Z19get_pending_requestv                          
00006839  _Z10setREQmode13gprs_status_t                     
0000684d  _Z10getREQmodev                                   
00006855  _Z16setServerReqType21server_request_type_t       
00006869  _Z16getServerReqTypev                             
00006871  _Z16setClientMSGType21client_message_type_t       
00006885  _Z16getClientMSGTypev                             
0000688d  _Z18set_network_statush                           
000068a1  _Z18get_network_statusv                           
00006909  _Z15vGPIOPortEnablev                              
000069bd  _Z16vGPIO_UnlockGPIOjh                            
00006a0b  _Z12vLEDGPIOInitv                                 
00006a21  _Z16vPERIPH_GPIOInitv                             
00006a77  _Z18readBCD_SelectorSWv                           
00006bc3  _Z12vGPIO_Togglejhh                               
00006be9  _Z10ToggleLEDsv                                   
00006bfd  _Z19init_ODU_Supplypinsv                          
00006c95  _Z11SetODU_Mode14voltage_mode_t                   
00006e15  _Z13controlRelaysv                                
000070c5  _Z14isSupplyStablev                               
00007163  _Z15vFreqDetectInitv                              
00007189  _Z15vEarthCheckInitv                              
0000719b  _Z17FREQDetIntHandlerv                            
000071f1  _Z12vEarthDetectv                                 
00007229  _Z16ControlODU_Relayh                             
00007269  _Z19ControlRouter_Relayh                          
0000728d  _Z28ControlRouterSelection_Relayh                 
000072b1  _Z13set_ODU_state18relay_ctrl_state_t             
000072cb  _Z13get_ODU_statev                                
000072d3  _Z16set_router_state18relay_ctrl_state_t          
000072e7  _Z16get_router_statev                             
00007317  _Z26set_router_selection_state18relay_ctrl_state_t
0000732b  _Z26get_router_selection_statev                   
00007357  _Z24control_battery_chargingb                     
00007381  _Z22control_inverter_inputb                       
000073a5  _Z24get_detection_parametersv                     
000073f9  _Z12ADC_PortIniti                                 
000075e1  _Z9vADC0Initv                                     
00007637  _Z7readADCh                                       
000076f9  _Z9updateADC14ADC_Channels_th                     
000079a5  _Z13getODUCurrentv                                
00007a09  _Z21getRouter1_DC_currentv                        
00007a71  _Z13getODUVoltagev                                
00007af1  _Z17getBatteryVoltagev                            
00007b51  _Z14getSMPSVoltagev                               
00007ba5  _Z19calculate_PN_AC_ADCv                          
00007bcb  _Z19calculate_NE_AC_ADCv                          
00007c05  _Z13readACVoltagev                                
00007c31  _Z10GetAdcDatav                                   
00007c9d  _Z16get_ADC_SIGarray14ADC_Channels_th             
00007ed9  _Z15vPERIPH_E2PInitv                              
00007ee7  _Z24e2p_write_voltage_configv                     
00007f27  _Z23e2p_read_voltage_configv                      
00007fb1  _Z19e2p_write_cloud_cfgv                          
00007fe1  _Z18e2p_read_cloud_cfgv                           
0000806b  _Z7get_urlv                                       
0000806f  _Z20e2p_write_device_cfgv                         
0000809f  _Z19e2p_read_device_cfgv                          
00008129  _Z18e2p_write_locationv                           
0000817d  _Z17e2p_read_locationv                            
00008213  _Z18e2p_write_cfg_timev                           
0000826d  _Z17e2p_read_cfg_timev                            
00008321  _Z7set_urlPc                                      
000083e5  _Z13set_device_idPc                               
00008487  _Z13get_device_idv                                
000084f9  _Z18set_fixed_locationPc                          
0000870b  _Z18get_fixed_locationv                           
00008755  _Z17cloud_config_datav                            
00008909  main                                              
00008a9d  _Z15update_ram_datav                              
00008ae1  _Z12setRAM_Alarm16Alarm_sts_bits_tb               
00008b19  _Z12getRAM_Alarmv                                 
00008b1f  _Z13setRAM_Statushb                               
00008b57  _Z13getRAM_Statusv                                
00008b5d  _Z17vPERIPH_ClockInitv                            
00008b7d  _Z26vMAIN_InitClockPeripheralsv                   
00008c91  _Z14write_defaultsj                               
00008dd1  _Z11init_configv                                  
00008f55  _Z18getRelay_CtrlStatev                           
00009021  _Z19update_alarm_statusv                          
000092b5  _Z12getRSTreasonv                                 
00009321  _Z14Reset_Hold_Lowv                               
0000932f  _Z15Reset_Hold_Highv                              
0000933d  _Z6WP_Lowv                                        
0000934b  _Z7WP_Highv                                       
00009359  _Z17flash_port_assignv                            
000093a7  _Z15init_flash_pinsv                              
000093c9  _Z9flashInitv                                     
000093f3  _Z15flashClrTR_Logsv                              
00009435  _Z19flashClrFreqUpdLogsv                          
00009479  _Z22addDummyFL_TelecomLogsj                       
000095c3  _Z12flashSwResetv                                 
000095db  _Z13enable_wp_pinv                                
000095fd  _Z4WRENv                                          
0000960f  _Z4WRDIv                                          
00009621  _Z4WRCRc                                          
00009645  _Z7CE_Highv                                       
00009653  _Z6CE_Lowv                                        
00009661  _Z8SCK_Highv                                      
00009671  _Z7SCK_Lowv                                       
00009685  _Z14readContToBuffmjPc                            
000096f9  _Z16flashEraseMasterv                             
00009739  _Z11flashCopyMRPcS_                               
00009775  _Z16flashEraseSectormm                            
000097d9  _Z16flashEraseBackupv                             
0000981d  _Z18flashPacketProgramPctm                        
000098a1  _Z9Wait_Busyv                                     
00009a43  _Z12Sector_Erasem                                 
00009a7d  _Z23remove_block_protectionv                      
00009aa7  _Z4WBPRc                                          
00009b25  _Z12SetSI_Outputv                                 
00009b33  _Z11SetSI_Inputv                                  
00009b41  _Z12SetSO_Outputv                                 
00009b4f  _Z11SetSO_Inputv                                  
00009b5d  _Z6SI_Lowv                                        
00009b6d  _Z7SI_Highv                                       
00009b7d  _Z20Read_Status_Registerv                         
00009ba1  _Z9Send_Byteh                                     
00009c85  _Z8Get_Bytev                                      
00009cff  _Z10Chip_Erasev                                   
00009d11  _Z16decodeMsgPC_Uartv                             
00009d37  _Z24preparePC_ResponsePacket5cmd_tPchii           
00009e45  _Z8response5cmd_ti                                
0000a5c9  _Z17tx_pending_dataPCv                            
0000a5e7  _Z16set_system_state10sys_mode_t                  
0000a5fb  _Z16get_system_statev                             
0000a68d  _Z15flashWriteMR_BRv                              
0000a725  _Z19updateFlashCurrAddrv                          
0000a8a5  _Z25flashGetCurrDataWriteAddrc                    
0000a8cb  _Z22flashGetCurrUploadAddrc                       
0000a8f1  _Z16flashGetSerMR_BRv                             
0000a8fd  _Z12flashWriteTRv                                 
0000a9cd  _Z16validate_FL_addrcm                            
0000a9fb  _Z10clear_logsv                                   
0000aa17  _Z12clear_log_idv                                 
0000aa2b  _Z11clear_flashv                                  
0000aa49  _Z11get_log_cnti                                  
0000aa9d  _Z8get_addrim                                     
0000aaf1  _Z12get_log_dataimPc                              
0000ab39  _Z27flashEraseFreqUpdDataSectorv                  
0000ab5b  _Z27flashClearFreqUpdatedConfigv                  
0000ab7f  _Z21flashWriteFreqUpdDataP19freq_updated_data_tm  
0000abad  _Z27flashWriteFreqUpdatedConfigv                  
0000abed  _Z20flashReadFreqUpdDataP19freq_updated_data_tmi  
0000ac15  _Z21readFreqUpdData_flashv                        
0000aced  _Z24decrement_unsent_log_cnti                     
0000ad13  _Z24increment_unsent_log_cnti                     
0000ad39  _Z16check_unsent_logv                             
0000ad47  _Z15get_unsent_logsv                              
0000ad67  _Z23save_OfflineTelecomDatav                      
0000ad89  _Z26prepare_OfflineTelecomDatav                   
0000ad9d  _Z17save_TELECOM_datav                            
0000adc5  _Z14vDEBUGUARTInitv                               
0000ae13  _Z12vLTEUARTInitv                                 
0000ae6f  _Z16vPERIPH_UARTInitv                             
0000ae7b  DEBUGUARTIntHandler                               
0000b00d  LTEUARTIntHandler                                 
0000b079  _Z13vUART_SendChrjh                               
0000b0a9  _Z13vUART_SendStrjPKh                             
0000b0d1  _Z15vUART_SendBytesjPKhj                          
0000b10d  _Z13vUART_SendIntji                               
0000b135  _Z11Usendbufferj                                  
0000b1ad  _Z23vUART_CheckFrameTimeouti                      
0000b245  _Z13flushRxBufferi                                
0000b275  _Z13flushTxBufferi                                
0000b2dd  _Z25prepare_graphical_tx_buffjPch                 
0000b3c1  _Z11getChecksumPhc                                
0000b417  _Z10my_sprintfPciz                                
0000b59b  _Z8intToStriPci                                   
0000b609  _Z7reversePci                                     
0000b659  _Z13delete_SubStrPcS_c                            
0000b71d  _Z17generateRandomKeyiPc                          
0000b78f  _Z25count_doubleSquareBracketPcj                  
0000b7e3  _Z11count_commaPct                                
0000b82b  _Z9my_strstrPKcS0_i                               
0000b879  _Z7findMaxPii                                     
0000b8c5  __mktime64                                        
0000bb7d  _Z11vRTCI2CInitv                                  
0000bbdb  _Z10I2CReceivev                                   
0000bc25  _Z8Read_RTCPhh                                    
0000bced  _Z9Write_RTCPhh                                   
0000bd8d  _Z19vPERIPH_SystickInitv                          
0000bda9  SysTickIntHandler                                 
0000bee5  _Z13vMAIN_DelayMSj                                
0000bf03  _Z9my_millisv                                     
0000bf13  _Z9_delay_usi                                     
0000bf71  __aeabi_dsub                                      
0000bf7b  __aeabi_dadd                                      
0000c127  _nop                                              
0000c129  GPIOPadConfigSet                                  
0000c295  __aeabi_ddiv                                      
0000c3cb  __aeabi_idiv0                                     
0000c3cb  __aeabi_ldiv0                                     
0000c3cd  SysCtlClockGet                                    
0000c4e5  __aeabi_dmul                                      
0000c5e1  SysCtlClockSet                                    
0000c6d5  EEPROMProgram                                     
0000c799  __aeabi_memcpy                                    
0000c799  __aeabi_memcpy4                                   
0000c799  __aeabi_memcpy8                                   
0000c799  memcpy                                            
0000c835  __aeabi_uldivmod                                  
0000c8cb  __aeabi_cdcmpeq                                   
0000c8cb  __aeabi_cdcmple                                   
0000c951  ADCSequenceStepConfigure                          
0000c9cb  __aeabi_memclr                                    
0000c9cb  __aeabi_memclr4                                   
0000c9cb  __aeabi_memclr8                                   
0000c9cd  __aeabi_memset                                    
0000c9cd  __aeabi_memset4                                   
0000c9cd  __aeabi_memset8                                   
0000c9d3  memset                                            
0000ca45  ltoa                                              
0000cab3  __aeabi_ldivmod                                   
0000cb21  IntEnable                                         
0000cb89  __TI_decompress_lzss                              
0000cbf1  _Z8sleep_usi                                      
0000cc25  _Z5delayj                                         
0000cc59  HOSTtime64                                        
0000ccb9  TimerConfigure                                    
0000cd19  _Z10vTimerInitv                                   
0000cd53  TimerIntHandler                                   
0000cd79  GPIOIntTypeSet                                    
0000cdd1  SysCtlPeripheralReset                             
0000ce21  ADCSequenceConfigure                              
0000ce71  GPIOPinConfigure                                  
0000cebd  I2CMasterInitExpClk                               
0000cf09  atoi                                              
0000cf55  UARTConfigSetExpClk                               
0000cfe1  __TI_auto_init_nobinit_nopinit                    
0000d025  __aeabi_d2uiz                                     
0000d069  EEPROMInit                                        
0000d0e5  EEPROMRead                                        
0000d11d  SysCtlPeripheralReady                             
0000d155  __TI_writemsg                                     
0000d183  C$$IO$$                                           
0000d18d  IntRegister                                       
0000d1c1  SysCtlPeripheralDisable                           
0000d1f5  SysCtlPeripheralEnable                            
0000d25d  __TI_readmsg                                      
0000d291  _c_int00_noargs                                   
0000d2c5  rand                                              
0000d2f9  strstr                                            
0000d32d  ADCIntStatus                                      
0000d35b  __aeabi_i2d                                       
0000d389  GPIODirModeSet                                    
0000d3b5  strncmp                                           
0000d3e1  memcmp                                            
0000d405  srand                                             
0000d429  UARTDisable                                       
0000d449  __aeabi_ui2d                                      
0000d469  ADCSequenceDataGet                                
0000d487  GPIOPinTypeGPIOOutput                             
0000d4a1  ADCProcessorTrigger                               
0000d4b9  GPIOIntRegister                                   
0000d4d1  __aeabi_lmul                                      
0000d4e9  strcmp                                            
0000d501  GPIOPinTypeADC                                    
0000d517  GPIOPinTypeGPIOInput                              
0000d52d  GPIOPinTypeI2C                                    
0000d543  GPIOPinTypeI2CSCL                                 
0000d559  GPIOPinTypeUART                                   
0000d571  SysTickEnable                                     
0000d585  SysTickIntEnable                                  
0000d599  UARTEnable                                        
0000d5ad  strcpy                                            
0000d5c1  strlen                                            
0000d5d5  TimerLoadSet                                      
0000d5e7  TimerPrescaleSet                                  
0000d5f9  _Z3absl                                           
0000d60b  IntMasterDisable                                  
0000d61b  IntMasterEnable                                   
0000d62d  SysCtlReset                                       
0000d63d  SysTickPeriodSet                                  
0000d65d  __time64                                          
0000d66d  isdigit                                           
0000d67d  ADCSequenceEnable                                 
0000d68b  GPIOIntStatus                                     
0000d699  I2CRxFIFOFlush                                    
0000d6a7  I2CTxFIFOFlush                                    
0000d6b5  TimerEnable                                       
0000d6c3  UARTCharGetNonBlocking                            
0000d6d1  UARTCharPutNonBlocking                            
0000d6df  UARTCharsAvail                                    
0000d6ed  __TI_decompress_none                              
0000d6fb  CPUcpsid                                          
0000d707  CPUcpsie                                          
0000d713  GPIOIntEnable                                     
0000d721  SysCtlResetCauseGet                               
0000d72d  __TI_zero_init                                    
0000d739  ResetISR                                          
0000d745  ADCIntClear                                       
0000d74f  I2CMasterEnable                                   
0000d759  UARTIntStatus                                     
0000d763  I2CMasterBusy                                     
0000d76b  I2CMasterSlaveAddrSet                             
0000d773  TimerIntEnable                                    
0000d77b  UARTBusy                                          
0000d783  UARTIntEnable                                     
0000d78b  GPIOIntClear                                      
0000d791  GPIOPinRead                                       
0000d797  GPIOPinWrite                                      
0000d79d  SysCtlDelay                                       
0000d7a3  I2CMasterControl                                  
0000d7a7  I2CMasterDataGet                                  
0000d7ab  I2CMasterDataPut                                  
0000d7af  TimerIntClear                                     
0000d7b3  UARTIntClear                                      
0000d7b7  _system_pre_init                                  
0000d7bb  C$$EXIT                                           
0000d7bb  abort                                             
0000d996  _ctypes_                                          
0000def8  __TI_Handler_Table_Base                           
0000df04  __TI_Handler_Table_Limit                          
0000df18  __TI_CINIT_Base                                   
0000df30  __TI_CINIT_Limit                                  
20000000  __start___llvm_prf_cnts                           
20000000  __stop___llvm_prf_cnts                            
20000000  g_pfnRAMVectors                                   
20000270  __stack                                           
20000470  __STACK_TOP                                       
20001a70  __STACK_END                                       
20001a70  gprs_rx_buff                                      
20001c6c  gprs_tx_buff                                      
20001e68  dummy_json_string                                 
20001ff0  adc                                               
2000216c  display_tx                                        
2000229c  __CIOBUF_                                         
200023bc  cloud_config                                      
20002492  BCD_MODE                                          
20002494  display_uart_rx                                   
20002534  pc_uart_rx                                        
200025d4  e2p_cloud_config                                  
20002654  pc_uart_tx                                        
200026a4  FLR_log_data                                      
200026e4  FL_log_data                                       
20002724  ram_data                                          
2000275a  adc_arr                                           
20002783  time_main                                         
200027a2  measurements                                      
200027be  EXTI_cnt                                          
200027c0  gprs                                              
200027d4  e2p_device_info                                   
200027e4  e2p_location_info                                 
200027f4  freq_updated_data                                 
20002804  scheduler                                         
20002812  Alarms                                            
2000281e  e2p_config_time                                   
20002826  e2p_router_config                                 
2000282e  parmbuf                                           
20002836  gprs_date_time                                    
2000283d  time_stamp                                        
20002843  Telecom_server_query                              
20002847  System_mode                                       
20002848  u32DelayCounter                                   
2000284c  relay_state                                       
2000284f  gprs_rx_isr_handler                               
20002851  network_status                                    
20002852  voltage_mode                                      
20002899  server_response_str                               
200028b8  PN_ADC_RAW_MAX                                    
200028c0  NE_ADC_RAW_MAX                                    
200028dc  _tz                                               
200028ec  upload_time                                       
200028f0  save_offline_time                                 
200028f4  relay_startup_time                                
200028f8  GLCD_startup_time                                 
200028fc  millis_cnt                                        
20002900  ACVoltReadMillis                                  
20002904  counter_10sec                                     
20002908  g_bIntFlag                                        
20002914  _lock                                             
20002918  _unlock                                           
2000291c  screen_x                                          
ffffffff  __TI_pprof_out_hndl                               
ffffffff  __TI_prof_data_size                               
ffffffff  __TI_prof_data_start                              
ffffffff  __binit__                                         
ffffffff  __c_args__                                        
ffffffff  binit                                             
UNDEFED   __mpu_init                                        
UNDEFED   _system_post_cinit                                

[458 symbols]
